; ModuleID = '/afs/hep.wisc.edu/user/mbileska/WOMBATv2HLS/duo/testMisc20/vivado_hls_duo/WOMBAT_prj/solution1/.autopilot/db/a.g.ld.5.gdce.bc'
source_filename = "llvm-link"
target datalayout = "e-m:e-i64:64-i128:128-i256:256-i512:512-i1024:1024-i2048:2048-i4096:4096-n8:16:32:64-S128-v16:16-v24:32-v32:32-v48:64-v96:128-v192:256-v256:256-v512:512-v1024:1024"
target triple = "fpga64-xilinx-none"

%struct.ap_uint.2 = type { %struct.ap_int_base.1 }
%struct.ap_int_base.1 = type { %struct.ssdm_int.0 }
%struct.ssdm_int.0 = type { i128 }
%struct.ap_uint.0 = type { %struct.ap_int_base.1.4 }
%struct.ap_int_base.1.4 = type { %struct.ssdm_int.2.3 }
%struct.ssdm_int.2.3 = type { i192 }

; Function Attrs: inaccessiblememonly nounwind
declare void @llvm.sideeffect() #0

; Function Attrs: noinline
define void @apatb_algo_unpacked_ir(%struct.ap_uint.2* %link_in, %struct.ap_uint.0* %link_out) local_unnamed_addr #1 {
entry:
  %link_in_copy_0 = alloca i128, align 512
  %link_in_copy_1 = alloca i128, align 512
  %link_in_copy_2 = alloca i128, align 512
  %link_in_copy_3 = alloca i128, align 512
  %link_in_copy_4 = alloca i128, align 512
  %link_in_copy_5 = alloca i128, align 512
  %link_in_copy_6 = alloca i128, align 512
  %link_in_copy_7 = alloca i128, align 512
  %link_in_copy_8 = alloca i128, align 512
  %link_in_copy_9 = alloca i128, align 512
  %link_in_copy_10 = alloca i128, align 512
  %link_in_copy_11 = alloca i128, align 512
  %link_in_copy_12 = alloca i128, align 512
  %link_in_copy_13 = alloca i128, align 512
  %link_in_copy_14 = alloca i128, align 512
  %link_in_copy_15 = alloca i128, align 512
  %link_in_copy_16 = alloca i128, align 512
  %link_in_copy_17 = alloca i128, align 512
  %link_in_copy_18 = alloca i128, align 512
  %link_in_copy_19 = alloca i128, align 512
  %link_in_copy_20 = alloca i128, align 512
  %link_in_copy_21 = alloca i128, align 512
  %link_in_copy_22 = alloca i128, align 512
  %link_in_copy_23 = alloca i128, align 512
  %link_in_copy_24 = alloca i128, align 512
  %link_in_copy_25 = alloca i128, align 512
  %link_in_copy_26 = alloca i128, align 512
  %link_in_copy_27 = alloca i128, align 512
  %link_in_copy_28 = alloca i128, align 512
  %link_in_copy_29 = alloca i128, align 512
  %link_in_copy_30 = alloca i128, align 512
  %link_in_copy_31 = alloca i128, align 512
  %link_in_copy_32 = alloca i128, align 512
  %link_in_copy_33 = alloca i128, align 512
  %link_in_copy_34 = alloca i128, align 512
  %link_in_copy_35 = alloca i128, align 512
  %link_out_copy = alloca [1 x i192], align 512
  %0 = bitcast %struct.ap_uint.2* %link_in to [36 x %struct.ap_uint.2]*
  %1 = bitcast %struct.ap_uint.0* %link_out to [1 x %struct.ap_uint.0]*
  call void @copy_in([36 x %struct.ap_uint.2]* %0, i128* nonnull align 512 %link_in_copy_0, i128* nonnull align 512 %link_in_copy_1, i128* nonnull align 512 %link_in_copy_2, i128* nonnull align 512 %link_in_copy_3, i128* nonnull align 512 %link_in_copy_4, i128* nonnull align 512 %link_in_copy_5, i128* nonnull align 512 %link_in_copy_6, i128* nonnull align 512 %link_in_copy_7, i128* nonnull align 512 %link_in_copy_8, i128* nonnull align 512 %link_in_copy_9, i128* nonnull align 512 %link_in_copy_10, i128* nonnull align 512 %link_in_copy_11, i128* nonnull align 512 %link_in_copy_12, i128* nonnull align 512 %link_in_copy_13, i128* nonnull align 512 %link_in_copy_14, i128* nonnull align 512 %link_in_copy_15, i128* nonnull align 512 %link_in_copy_16, i128* nonnull align 512 %link_in_copy_17, i128* nonnull align 512 %link_in_copy_18, i128* nonnull align 512 %link_in_copy_19, i128* nonnull align 512 %link_in_copy_20, i128* nonnull align 512 %link_in_copy_21, i128* nonnull align 512 %link_in_copy_22, i128* nonnull align 512 %link_in_copy_23, i128* nonnull align 512 %link_in_copy_24, i128* nonnull align 512 %link_in_copy_25, i128* nonnull align 512 %link_in_copy_26, i128* nonnull align 512 %link_in_copy_27, i128* nonnull align 512 %link_in_copy_28, i128* nonnull align 512 %link_in_copy_29, i128* nonnull align 512 %link_in_copy_30, i128* nonnull align 512 %link_in_copy_31, i128* nonnull align 512 %link_in_copy_32, i128* nonnull align 512 %link_in_copy_33, i128* nonnull align 512 %link_in_copy_34, i128* nonnull align 512 %link_in_copy_35, [1 x %struct.ap_uint.0]* %1, [1 x i192]* nonnull align 512 %link_out_copy)
  %2 = getelementptr [1 x i192], [1 x i192]* %link_out_copy, i64 0, i64 0
  call void @llvm.sideeffect() #7 [ "xlx_array_partition"(i192* %2, i32 2, i32 0, i32 0) ], !dbg !5
  call void @apatb_algo_unpacked_hw(i128* %link_in_copy_0, i128* %link_in_copy_1, i128* %link_in_copy_2, i128* %link_in_copy_3, i128* %link_in_copy_4, i128* %link_in_copy_5, i128* %link_in_copy_6, i128* %link_in_copy_7, i128* %link_in_copy_8, i128* %link_in_copy_9, i128* %link_in_copy_10, i128* %link_in_copy_11, i128* %link_in_copy_12, i128* %link_in_copy_13, i128* %link_in_copy_14, i128* %link_in_copy_15, i128* %link_in_copy_16, i128* %link_in_copy_17, i128* %link_in_copy_18, i128* %link_in_copy_19, i128* %link_in_copy_20, i128* %link_in_copy_21, i128* %link_in_copy_22, i128* %link_in_copy_23, i128* %link_in_copy_24, i128* %link_in_copy_25, i128* %link_in_copy_26, i128* %link_in_copy_27, i128* %link_in_copy_28, i128* %link_in_copy_29, i128* %link_in_copy_30, i128* %link_in_copy_31, i128* %link_in_copy_32, i128* %link_in_copy_33, i128* %link_in_copy_34, i128* %link_in_copy_35, i192* %2)
  call void @copy_out([36 x %struct.ap_uint.2]* %0, i128* nonnull align 512 %link_in_copy_0, i128* nonnull align 512 %link_in_copy_1, i128* nonnull align 512 %link_in_copy_2, i128* nonnull align 512 %link_in_copy_3, i128* nonnull align 512 %link_in_copy_4, i128* nonnull align 512 %link_in_copy_5, i128* nonnull align 512 %link_in_copy_6, i128* nonnull align 512 %link_in_copy_7, i128* nonnull align 512 %link_in_copy_8, i128* nonnull align 512 %link_in_copy_9, i128* nonnull align 512 %link_in_copy_10, i128* nonnull align 512 %link_in_copy_11, i128* nonnull align 512 %link_in_copy_12, i128* nonnull align 512 %link_in_copy_13, i128* nonnull align 512 %link_in_copy_14, i128* nonnull align 512 %link_in_copy_15, i128* nonnull align 512 %link_in_copy_16, i128* nonnull align 512 %link_in_copy_17, i128* nonnull align 512 %link_in_copy_18, i128* nonnull align 512 %link_in_copy_19, i128* nonnull align 512 %link_in_copy_20, i128* nonnull align 512 %link_in_copy_21, i128* nonnull align 512 %link_in_copy_22, i128* nonnull align 512 %link_in_copy_23, i128* nonnull align 512 %link_in_copy_24, i128* nonnull align 512 %link_in_copy_25, i128* nonnull align 512 %link_in_copy_26, i128* nonnull align 512 %link_in_copy_27, i128* nonnull align 512 %link_in_copy_28, i128* nonnull align 512 %link_in_copy_29, i128* nonnull align 512 %link_in_copy_30, i128* nonnull align 512 %link_in_copy_31, i128* nonnull align 512 %link_in_copy_32, i128* nonnull align 512 %link_in_copy_33, i128* nonnull align 512 %link_in_copy_34, i128* nonnull align 512 %link_in_copy_35, [1 x %struct.ap_uint.0]* %1, [1 x i192]* nonnull align 512 %link_out_copy)
  ret void
}

; Function Attrs: argmemonly noinline
define internal fastcc void @onebyonecpy_hls.p0a1struct.ap_uint.0([1 x i192]* noalias align 512 "fpga.caller.interfaces"="layout_transformed", [1 x %struct.ap_uint.0]* noalias readonly "fpga.caller.interfaces"="layout_transformed") unnamed_addr #2 {
entry:
  %2 = icmp eq [1 x i192]* %0, null
  %3 = icmp eq [1 x %struct.ap_uint.0]* %1, null
  %4 = or i1 %2, %3
  br i1 %4, label %ret, label %for.loop

for.loop:                                         ; preds = %entry
  %5 = getelementptr [1 x i192], [1 x i192]* %0, i64 0, i32 0
  %6 = getelementptr inbounds [1 x %struct.ap_uint.0], [1 x %struct.ap_uint.0]* %1, i64 0, i32 0, i32 0, i32 0, i32 0
  %7 = load i192, i192* %6, align 32
  store i192 %7, i192* %5, align 512
  br label %ret

ret:                                              ; preds = %for.loop, %entry
  ret void
}

; Function Attrs: nounwind
declare void @llvm.assume(i1) #3

; Function Attrs: argmemonly noinline
define internal void @onebyonecpy_hls.p0a36struct.ap_uint.2.207.208(i128* noalias align 512 "fpga.caller.interfaces"="layout_transformed" "orig.arg.no"="0" %_0, i128* noalias align 512 "fpga.caller.interfaces"="layout_transformed" "orig.arg.no"="0" %_1, i128* noalias align 512 "fpga.caller.interfaces"="layout_transformed" "orig.arg.no"="0" %_2, i128* noalias align 512 "fpga.caller.interfaces"="layout_transformed" "orig.arg.no"="0" %_3, i128* noalias align 512 "fpga.caller.interfaces"="layout_transformed" "orig.arg.no"="0" %_4, i128* noalias align 512 "fpga.caller.interfaces"="layout_transformed" "orig.arg.no"="0" %_5, i128* noalias align 512 "fpga.caller.interfaces"="layout_transformed" "orig.arg.no"="0" %_6, i128* noalias align 512 "fpga.caller.interfaces"="layout_transformed" "orig.arg.no"="0" %_7, i128* noalias align 512 "fpga.caller.interfaces"="layout_transformed" "orig.arg.no"="0" %_8, i128* noalias align 512 "fpga.caller.interfaces"="layout_transformed" "orig.arg.no"="0" %_9, i128* noalias align 512 "fpga.caller.interfaces"="layout_transformed" "orig.arg.no"="0" %_10, i128* noalias align 512 "fpga.caller.interfaces"="layout_transformed" "orig.arg.no"="0" %_11, i128* noalias align 512 "fpga.caller.interfaces"="layout_transformed" "orig.arg.no"="0" %_12, i128* noalias align 512 "fpga.caller.interfaces"="layout_transformed" "orig.arg.no"="0" %_13, i128* noalias align 512 "fpga.caller.interfaces"="layout_transformed" "orig.arg.no"="0" %_14, i128* noalias align 512 "fpga.caller.interfaces"="layout_transformed" "orig.arg.no"="0" %_15, i128* noalias align 512 "fpga.caller.interfaces"="layout_transformed" "orig.arg.no"="0" %_16, i128* noalias align 512 "fpga.caller.interfaces"="layout_transformed" "orig.arg.no"="0" %_17, i128* noalias align 512 "fpga.caller.interfaces"="layout_transformed" "orig.arg.no"="0" %_18, i128* noalias align 512 "fpga.caller.interfaces"="layout_transformed" "orig.arg.no"="0" %_19, i128* noalias align 512 "fpga.caller.interfaces"="layout_transformed" "orig.arg.no"="0" %_20, i128* noalias align 512 "fpga.caller.interfaces"="layout_transformed" "orig.arg.no"="0" %_21, i128* noalias align 512 "fpga.caller.interfaces"="layout_transformed" "orig.arg.no"="0" %_22, i128* noalias align 512 "fpga.caller.interfaces"="layout_transformed" "orig.arg.no"="0" %_23, i128* noalias align 512 "fpga.caller.interfaces"="layout_transformed" "orig.arg.no"="0" %_24, i128* noalias align 512 "fpga.caller.interfaces"="layout_transformed" "orig.arg.no"="0" %_25, i128* noalias align 512 "fpga.caller.interfaces"="layout_transformed" "orig.arg.no"="0" %_26, i128* noalias align 512 "fpga.caller.interfaces"="layout_transformed" "orig.arg.no"="0" %_27, i128* noalias align 512 "fpga.caller.interfaces"="layout_transformed" "orig.arg.no"="0" %_28, i128* noalias align 512 "fpga.caller.interfaces"="layout_transformed" "orig.arg.no"="0" %_29, i128* noalias align 512 "fpga.caller.interfaces"="layout_transformed" "orig.arg.no"="0" %_30, i128* noalias align 512 "fpga.caller.interfaces"="layout_transformed" "orig.arg.no"="0" %_31, i128* noalias align 512 "fpga.caller.interfaces"="layout_transformed" "orig.arg.no"="0" %_32, i128* noalias align 512 "fpga.caller.interfaces"="layout_transformed" "orig.arg.no"="0" %_33, i128* noalias align 512 "fpga.caller.interfaces"="layout_transformed" "orig.arg.no"="0" %_34, i128* noalias align 512 "fpga.caller.interfaces"="layout_transformed" "orig.arg.no"="0" %_35, [36 x %struct.ap_uint.2]* noalias readonly "fpga.caller.interfaces"="layout_transformed" "orig.arg.no"="1") #2 {
entry:
  %1 = icmp eq i128* %_0, null
  %2 = icmp eq [36 x %struct.ap_uint.2]* %0, null
  %3 = or i1 %1, %2
  br i1 %3, label %ret, label %copy

copy:                                             ; preds = %entry
  br label %for.loop

for.loop:                                         ; preds = %.exit, %copy
  %for.loop.idx9 = phi i64 [ 0, %copy ], [ %for.loop.idx.next, %.exit ]
  %src.addr.0.0.05.gep8 = getelementptr [36 x %struct.ap_uint.2], [36 x %struct.ap_uint.2]* %0, i64 0, i64 %for.loop.idx9, i32 0, i32 0, i32 0
  switch i64 %for.loop.idx9, label %.case.35 [
    i64 0, label %.case.0
    i64 1, label %.case.1
    i64 2, label %.case.2
    i64 3, label %.case.3
    i64 4, label %.case.4
    i64 5, label %.case.5
    i64 6, label %.case.6
    i64 7, label %.case.7
    i64 8, label %.case.8
    i64 9, label %.case.9
    i64 10, label %.case.10
    i64 11, label %.case.11
    i64 12, label %.case.12
    i64 13, label %.case.13
    i64 14, label %.case.14
    i64 15, label %.case.15
    i64 16, label %.case.16
    i64 17, label %.case.17
    i64 18, label %.case.18
    i64 19, label %.case.19
    i64 20, label %.case.20
    i64 21, label %.case.21
    i64 22, label %.case.22
    i64 23, label %.case.23
    i64 24, label %.case.24
    i64 25, label %.case.25
    i64 26, label %.case.26
    i64 27, label %.case.27
    i64 28, label %.case.28
    i64 29, label %.case.29
    i64 30, label %.case.30
    i64 31, label %.case.31
    i64 32, label %.case.32
    i64 33, label %.case.33
    i64 34, label %.case.34
  ]

.case.0:                                          ; preds = %for.loop
  %4 = load i128, i128* %src.addr.0.0.05.gep8, align 16
  store i128 %4, i128* %_0, align 512
  br label %.exit

.case.1:                                          ; preds = %for.loop
  %5 = load i128, i128* %src.addr.0.0.05.gep8, align 16
  store i128 %5, i128* %_1, align 512
  br label %.exit

.case.2:                                          ; preds = %for.loop
  %6 = load i128, i128* %src.addr.0.0.05.gep8, align 16
  store i128 %6, i128* %_2, align 512
  br label %.exit

.case.3:                                          ; preds = %for.loop
  %7 = load i128, i128* %src.addr.0.0.05.gep8, align 16
  store i128 %7, i128* %_3, align 512
  br label %.exit

.case.4:                                          ; preds = %for.loop
  %8 = load i128, i128* %src.addr.0.0.05.gep8, align 16
  store i128 %8, i128* %_4, align 512
  br label %.exit

.case.5:                                          ; preds = %for.loop
  %9 = load i128, i128* %src.addr.0.0.05.gep8, align 16
  store i128 %9, i128* %_5, align 512
  br label %.exit

.case.6:                                          ; preds = %for.loop
  %10 = load i128, i128* %src.addr.0.0.05.gep8, align 16
  store i128 %10, i128* %_6, align 512
  br label %.exit

.case.7:                                          ; preds = %for.loop
  %11 = load i128, i128* %src.addr.0.0.05.gep8, align 16
  store i128 %11, i128* %_7, align 512
  br label %.exit

.case.8:                                          ; preds = %for.loop
  %12 = load i128, i128* %src.addr.0.0.05.gep8, align 16
  store i128 %12, i128* %_8, align 512
  br label %.exit

.case.9:                                          ; preds = %for.loop
  %13 = load i128, i128* %src.addr.0.0.05.gep8, align 16
  store i128 %13, i128* %_9, align 512
  br label %.exit

.case.10:                                         ; preds = %for.loop
  %14 = load i128, i128* %src.addr.0.0.05.gep8, align 16
  store i128 %14, i128* %_10, align 512
  br label %.exit

.case.11:                                         ; preds = %for.loop
  %15 = load i128, i128* %src.addr.0.0.05.gep8, align 16
  store i128 %15, i128* %_11, align 512
  br label %.exit

.case.12:                                         ; preds = %for.loop
  %16 = load i128, i128* %src.addr.0.0.05.gep8, align 16
  store i128 %16, i128* %_12, align 512
  br label %.exit

.case.13:                                         ; preds = %for.loop
  %17 = load i128, i128* %src.addr.0.0.05.gep8, align 16
  store i128 %17, i128* %_13, align 512
  br label %.exit

.case.14:                                         ; preds = %for.loop
  %18 = load i128, i128* %src.addr.0.0.05.gep8, align 16
  store i128 %18, i128* %_14, align 512
  br label %.exit

.case.15:                                         ; preds = %for.loop
  %19 = load i128, i128* %src.addr.0.0.05.gep8, align 16
  store i128 %19, i128* %_15, align 512
  br label %.exit

.case.16:                                         ; preds = %for.loop
  %20 = load i128, i128* %src.addr.0.0.05.gep8, align 16
  store i128 %20, i128* %_16, align 512
  br label %.exit

.case.17:                                         ; preds = %for.loop
  %21 = load i128, i128* %src.addr.0.0.05.gep8, align 16
  store i128 %21, i128* %_17, align 512
  br label %.exit

.case.18:                                         ; preds = %for.loop
  %22 = load i128, i128* %src.addr.0.0.05.gep8, align 16
  store i128 %22, i128* %_18, align 512
  br label %.exit

.case.19:                                         ; preds = %for.loop
  %23 = load i128, i128* %src.addr.0.0.05.gep8, align 16
  store i128 %23, i128* %_19, align 512
  br label %.exit

.case.20:                                         ; preds = %for.loop
  %24 = load i128, i128* %src.addr.0.0.05.gep8, align 16
  store i128 %24, i128* %_20, align 512
  br label %.exit

.case.21:                                         ; preds = %for.loop
  %25 = load i128, i128* %src.addr.0.0.05.gep8, align 16
  store i128 %25, i128* %_21, align 512
  br label %.exit

.case.22:                                         ; preds = %for.loop
  %26 = load i128, i128* %src.addr.0.0.05.gep8, align 16
  store i128 %26, i128* %_22, align 512
  br label %.exit

.case.23:                                         ; preds = %for.loop
  %27 = load i128, i128* %src.addr.0.0.05.gep8, align 16
  store i128 %27, i128* %_23, align 512
  br label %.exit

.case.24:                                         ; preds = %for.loop
  %28 = load i128, i128* %src.addr.0.0.05.gep8, align 16
  store i128 %28, i128* %_24, align 512
  br label %.exit

.case.25:                                         ; preds = %for.loop
  %29 = load i128, i128* %src.addr.0.0.05.gep8, align 16
  store i128 %29, i128* %_25, align 512
  br label %.exit

.case.26:                                         ; preds = %for.loop
  %30 = load i128, i128* %src.addr.0.0.05.gep8, align 16
  store i128 %30, i128* %_26, align 512
  br label %.exit

.case.27:                                         ; preds = %for.loop
  %31 = load i128, i128* %src.addr.0.0.05.gep8, align 16
  store i128 %31, i128* %_27, align 512
  br label %.exit

.case.28:                                         ; preds = %for.loop
  %32 = load i128, i128* %src.addr.0.0.05.gep8, align 16
  store i128 %32, i128* %_28, align 512
  br label %.exit

.case.29:                                         ; preds = %for.loop
  %33 = load i128, i128* %src.addr.0.0.05.gep8, align 16
  store i128 %33, i128* %_29, align 512
  br label %.exit

.case.30:                                         ; preds = %for.loop
  %34 = load i128, i128* %src.addr.0.0.05.gep8, align 16
  store i128 %34, i128* %_30, align 512
  br label %.exit

.case.31:                                         ; preds = %for.loop
  %35 = load i128, i128* %src.addr.0.0.05.gep8, align 16
  store i128 %35, i128* %_31, align 512
  br label %.exit

.case.32:                                         ; preds = %for.loop
  %36 = load i128, i128* %src.addr.0.0.05.gep8, align 16
  store i128 %36, i128* %_32, align 512
  br label %.exit

.case.33:                                         ; preds = %for.loop
  %37 = load i128, i128* %src.addr.0.0.05.gep8, align 16
  store i128 %37, i128* %_33, align 512
  br label %.exit

.case.34:                                         ; preds = %for.loop
  %38 = load i128, i128* %src.addr.0.0.05.gep8, align 16
  store i128 %38, i128* %_34, align 512
  br label %.exit

.case.35:                                         ; preds = %for.loop
  %39 = icmp eq i64 %for.loop.idx9, 35
  call void @llvm.assume(i1 %39)
  %40 = load i128, i128* %src.addr.0.0.05.gep8, align 16
  store i128 %40, i128* %_35, align 512
  br label %.exit

.exit:                                            ; preds = %.case.35, %.case.34, %.case.33, %.case.32, %.case.31, %.case.30, %.case.29, %.case.28, %.case.27, %.case.26, %.case.25, %.case.24, %.case.23, %.case.22, %.case.21, %.case.20, %.case.19, %.case.18, %.case.17, %.case.16, %.case.15, %.case.14, %.case.13, %.case.12, %.case.11, %.case.10, %.case.9, %.case.8, %.case.7, %.case.6, %.case.5, %.case.4, %.case.3, %.case.2, %.case.1, %.case.0
  %for.loop.idx.next = add nuw nsw i64 %for.loop.idx9, 1
  %exitcond = icmp ne i64 %for.loop.idx.next, 36
  br i1 %exitcond, label %for.loop, label %ret

ret:                                              ; preds = %.exit, %entry
  ret void
}

; Function Attrs: argmemonly noinline
define internal void @copy_in([36 x %struct.ap_uint.2]* readonly "orig.arg.no"="0", i128* noalias align 512 "fpga.caller.interfaces"="layout_transformed" "orig.arg.no"="1" %_0, i128* noalias align 512 "fpga.caller.interfaces"="layout_transformed" "orig.arg.no"="1" %_1, i128* noalias align 512 "fpga.caller.interfaces"="layout_transformed" "orig.arg.no"="1" %_2, i128* noalias align 512 "fpga.caller.interfaces"="layout_transformed" "orig.arg.no"="1" %_3, i128* noalias align 512 "fpga.caller.interfaces"="layout_transformed" "orig.arg.no"="1" %_4, i128* noalias align 512 "fpga.caller.interfaces"="layout_transformed" "orig.arg.no"="1" %_5, i128* noalias align 512 "fpga.caller.interfaces"="layout_transformed" "orig.arg.no"="1" %_6, i128* noalias align 512 "fpga.caller.interfaces"="layout_transformed" "orig.arg.no"="1" %_7, i128* noalias align 512 "fpga.caller.interfaces"="layout_transformed" "orig.arg.no"="1" %_8, i128* noalias align 512 "fpga.caller.interfaces"="layout_transformed" "orig.arg.no"="1" %_9, i128* noalias align 512 "fpga.caller.interfaces"="layout_transformed" "orig.arg.no"="1" %_10, i128* noalias align 512 "fpga.caller.interfaces"="layout_transformed" "orig.arg.no"="1" %_11, i128* noalias align 512 "fpga.caller.interfaces"="layout_transformed" "orig.arg.no"="1" %_12, i128* noalias align 512 "fpga.caller.interfaces"="layout_transformed" "orig.arg.no"="1" %_13, i128* noalias align 512 "fpga.caller.interfaces"="layout_transformed" "orig.arg.no"="1" %_14, i128* noalias align 512 "fpga.caller.interfaces"="layout_transformed" "orig.arg.no"="1" %_15, i128* noalias align 512 "fpga.caller.interfaces"="layout_transformed" "orig.arg.no"="1" %_16, i128* noalias align 512 "fpga.caller.interfaces"="layout_transformed" "orig.arg.no"="1" %_17, i128* noalias align 512 "fpga.caller.interfaces"="layout_transformed" "orig.arg.no"="1" %_18, i128* noalias align 512 "fpga.caller.interfaces"="layout_transformed" "orig.arg.no"="1" %_19, i128* noalias align 512 "fpga.caller.interfaces"="layout_transformed" "orig.arg.no"="1" %_20, i128* noalias align 512 "fpga.caller.interfaces"="layout_transformed" "orig.arg.no"="1" %_21, i128* noalias align 512 "fpga.caller.interfaces"="layout_transformed" "orig.arg.no"="1" %_22, i128* noalias align 512 "fpga.caller.interfaces"="layout_transformed" "orig.arg.no"="1" %_23, i128* noalias align 512 "fpga.caller.interfaces"="layout_transformed" "orig.arg.no"="1" %_24, i128* noalias align 512 "fpga.caller.interfaces"="layout_transformed" "orig.arg.no"="1" %_25, i128* noalias align 512 "fpga.caller.interfaces"="layout_transformed" "orig.arg.no"="1" %_26, i128* noalias align 512 "fpga.caller.interfaces"="layout_transformed" "orig.arg.no"="1" %_27, i128* noalias align 512 "fpga.caller.interfaces"="layout_transformed" "orig.arg.no"="1" %_28, i128* noalias align 512 "fpga.caller.interfaces"="layout_transformed" "orig.arg.no"="1" %_29, i128* noalias align 512 "fpga.caller.interfaces"="layout_transformed" "orig.arg.no"="1" %_30, i128* noalias align 512 "fpga.caller.interfaces"="layout_transformed" "orig.arg.no"="1" %_31, i128* noalias align 512 "fpga.caller.interfaces"="layout_transformed" "orig.arg.no"="1" %_32, i128* noalias align 512 "fpga.caller.interfaces"="layout_transformed" "orig.arg.no"="1" %_33, i128* noalias align 512 "fpga.caller.interfaces"="layout_transformed" "orig.arg.no"="1" %_34, i128* noalias align 512 "fpga.caller.interfaces"="layout_transformed" "orig.arg.no"="1" %_35, [1 x %struct.ap_uint.0]* readonly "orig.arg.no"="2", [1 x i192]* noalias align 512 "fpga.caller.interfaces"="layout_transformed" "orig.arg.no"="3") #4 {
entry:
  call void @onebyonecpy_hls.p0a36struct.ap_uint.2.207.208(i128* align 512 %_0, i128* align 512 %_1, i128* align 512 %_2, i128* align 512 %_3, i128* align 512 %_4, i128* align 512 %_5, i128* align 512 %_6, i128* align 512 %_7, i128* align 512 %_8, i128* align 512 %_9, i128* align 512 %_10, i128* align 512 %_11, i128* align 512 %_12, i128* align 512 %_13, i128* align 512 %_14, i128* align 512 %_15, i128* align 512 %_16, i128* align 512 %_17, i128* align 512 %_18, i128* align 512 %_19, i128* align 512 %_20, i128* align 512 %_21, i128* align 512 %_22, i128* align 512 %_23, i128* align 512 %_24, i128* align 512 %_25, i128* align 512 %_26, i128* align 512 %_27, i128* align 512 %_28, i128* align 512 %_29, i128* align 512 %_30, i128* align 512 %_31, i128* align 512 %_32, i128* align 512 %_33, i128* align 512 %_34, i128* align 512 %_35, [36 x %struct.ap_uint.2]* %0)
  call fastcc void @onebyonecpy_hls.p0a1struct.ap_uint.0([1 x i192]* align 512 %2, [1 x %struct.ap_uint.0]* %1)
  ret void
}

; Function Attrs: argmemonly noinline
define internal void @onebyonecpy_hls.p0a36struct.ap_uint.2.213.214([36 x %struct.ap_uint.2]* noalias "fpga.caller.interfaces"="layout_transformed" "orig.arg.no"="0", i128* noalias readonly align 512 "fpga.caller.interfaces"="layout_transformed" "orig.arg.no"="1" %_0, i128* noalias readonly align 512 "fpga.caller.interfaces"="layout_transformed" "orig.arg.no"="1" %_1, i128* noalias readonly align 512 "fpga.caller.interfaces"="layout_transformed" "orig.arg.no"="1" %_2, i128* noalias readonly align 512 "fpga.caller.interfaces"="layout_transformed" "orig.arg.no"="1" %_3, i128* noalias readonly align 512 "fpga.caller.interfaces"="layout_transformed" "orig.arg.no"="1" %_4, i128* noalias readonly align 512 "fpga.caller.interfaces"="layout_transformed" "orig.arg.no"="1" %_5, i128* noalias readonly align 512 "fpga.caller.interfaces"="layout_transformed" "orig.arg.no"="1" %_6, i128* noalias readonly align 512 "fpga.caller.interfaces"="layout_transformed" "orig.arg.no"="1" %_7, i128* noalias readonly align 512 "fpga.caller.interfaces"="layout_transformed" "orig.arg.no"="1" %_8, i128* noalias readonly align 512 "fpga.caller.interfaces"="layout_transformed" "orig.arg.no"="1" %_9, i128* noalias readonly align 512 "fpga.caller.interfaces"="layout_transformed" "orig.arg.no"="1" %_10, i128* noalias readonly align 512 "fpga.caller.interfaces"="layout_transformed" "orig.arg.no"="1" %_11, i128* noalias readonly align 512 "fpga.caller.interfaces"="layout_transformed" "orig.arg.no"="1" %_12, i128* noalias readonly align 512 "fpga.caller.interfaces"="layout_transformed" "orig.arg.no"="1" %_13, i128* noalias readonly align 512 "fpga.caller.interfaces"="layout_transformed" "orig.arg.no"="1" %_14, i128* noalias readonly align 512 "fpga.caller.interfaces"="layout_transformed" "orig.arg.no"="1" %_15, i128* noalias readonly align 512 "fpga.caller.interfaces"="layout_transformed" "orig.arg.no"="1" %_16, i128* noalias readonly align 512 "fpga.caller.interfaces"="layout_transformed" "orig.arg.no"="1" %_17, i128* noalias readonly align 512 "fpga.caller.interfaces"="layout_transformed" "orig.arg.no"="1" %_18, i128* noalias readonly align 512 "fpga.caller.interfaces"="layout_transformed" "orig.arg.no"="1" %_19, i128* noalias readonly align 512 "fpga.caller.interfaces"="layout_transformed" "orig.arg.no"="1" %_20, i128* noalias readonly align 512 "fpga.caller.interfaces"="layout_transformed" "orig.arg.no"="1" %_21, i128* noalias readonly align 512 "fpga.caller.interfaces"="layout_transformed" "orig.arg.no"="1" %_22, i128* noalias readonly align 512 "fpga.caller.interfaces"="layout_transformed" "orig.arg.no"="1" %_23, i128* noalias readonly align 512 "fpga.caller.interfaces"="layout_transformed" "orig.arg.no"="1" %_24, i128* noalias readonly align 512 "fpga.caller.interfaces"="layout_transformed" "orig.arg.no"="1" %_25, i128* noalias readonly align 512 "fpga.caller.interfaces"="layout_transformed" "orig.arg.no"="1" %_26, i128* noalias readonly align 512 "fpga.caller.interfaces"="layout_transformed" "orig.arg.no"="1" %_27, i128* noalias readonly align 512 "fpga.caller.interfaces"="layout_transformed" "orig.arg.no"="1" %_28, i128* noalias readonly align 512 "fpga.caller.interfaces"="layout_transformed" "orig.arg.no"="1" %_29, i128* noalias readonly align 512 "fpga.caller.interfaces"="layout_transformed" "orig.arg.no"="1" %_30, i128* noalias readonly align 512 "fpga.caller.interfaces"="layout_transformed" "orig.arg.no"="1" %_31, i128* noalias readonly align 512 "fpga.caller.interfaces"="layout_transformed" "orig.arg.no"="1" %_32, i128* noalias readonly align 512 "fpga.caller.interfaces"="layout_transformed" "orig.arg.no"="1" %_33, i128* noalias readonly align 512 "fpga.caller.interfaces"="layout_transformed" "orig.arg.no"="1" %_34, i128* noalias readonly align 512 "fpga.caller.interfaces"="layout_transformed" "orig.arg.no"="1" %_35) #2 {
entry:
  %1 = icmp eq [36 x %struct.ap_uint.2]* %0, null
  %2 = icmp eq i128* %_0, null
  %3 = or i1 %1, %2
  br i1 %3, label %ret, label %copy

copy:                                             ; preds = %entry
  br label %for.loop

for.loop:                                         ; preds = %.exit, %copy
  %for.loop.idx9 = phi i64 [ 0, %copy ], [ %for.loop.idx.next, %.exit ]
  %dst.addr.0.0.06.gep7 = getelementptr [36 x %struct.ap_uint.2], [36 x %struct.ap_uint.2]* %0, i64 0, i64 %for.loop.idx9, i32 0, i32 0, i32 0
  switch i64 %for.loop.idx9, label %.case.35 [
    i64 0, label %.case.0
    i64 1, label %.case.1
    i64 2, label %.case.2
    i64 3, label %.case.3
    i64 4, label %.case.4
    i64 5, label %.case.5
    i64 6, label %.case.6
    i64 7, label %.case.7
    i64 8, label %.case.8
    i64 9, label %.case.9
    i64 10, label %.case.10
    i64 11, label %.case.11
    i64 12, label %.case.12
    i64 13, label %.case.13
    i64 14, label %.case.14
    i64 15, label %.case.15
    i64 16, label %.case.16
    i64 17, label %.case.17
    i64 18, label %.case.18
    i64 19, label %.case.19
    i64 20, label %.case.20
    i64 21, label %.case.21
    i64 22, label %.case.22
    i64 23, label %.case.23
    i64 24, label %.case.24
    i64 25, label %.case.25
    i64 26, label %.case.26
    i64 27, label %.case.27
    i64 28, label %.case.28
    i64 29, label %.case.29
    i64 30, label %.case.30
    i64 31, label %.case.31
    i64 32, label %.case.32
    i64 33, label %.case.33
    i64 34, label %.case.34
  ]

.case.0:                                          ; preds = %for.loop
  %4 = load i128, i128* %_0, align 512
  store i128 %4, i128* %dst.addr.0.0.06.gep7, align 16
  br label %.exit

.case.1:                                          ; preds = %for.loop
  %5 = load i128, i128* %_1, align 512
  store i128 %5, i128* %dst.addr.0.0.06.gep7, align 16
  br label %.exit

.case.2:                                          ; preds = %for.loop
  %6 = load i128, i128* %_2, align 512
  store i128 %6, i128* %dst.addr.0.0.06.gep7, align 16
  br label %.exit

.case.3:                                          ; preds = %for.loop
  %7 = load i128, i128* %_3, align 512
  store i128 %7, i128* %dst.addr.0.0.06.gep7, align 16
  br label %.exit

.case.4:                                          ; preds = %for.loop
  %8 = load i128, i128* %_4, align 512
  store i128 %8, i128* %dst.addr.0.0.06.gep7, align 16
  br label %.exit

.case.5:                                          ; preds = %for.loop
  %9 = load i128, i128* %_5, align 512
  store i128 %9, i128* %dst.addr.0.0.06.gep7, align 16
  br label %.exit

.case.6:                                          ; preds = %for.loop
  %10 = load i128, i128* %_6, align 512
  store i128 %10, i128* %dst.addr.0.0.06.gep7, align 16
  br label %.exit

.case.7:                                          ; preds = %for.loop
  %11 = load i128, i128* %_7, align 512
  store i128 %11, i128* %dst.addr.0.0.06.gep7, align 16
  br label %.exit

.case.8:                                          ; preds = %for.loop
  %12 = load i128, i128* %_8, align 512
  store i128 %12, i128* %dst.addr.0.0.06.gep7, align 16
  br label %.exit

.case.9:                                          ; preds = %for.loop
  %13 = load i128, i128* %_9, align 512
  store i128 %13, i128* %dst.addr.0.0.06.gep7, align 16
  br label %.exit

.case.10:                                         ; preds = %for.loop
  %14 = load i128, i128* %_10, align 512
  store i128 %14, i128* %dst.addr.0.0.06.gep7, align 16
  br label %.exit

.case.11:                                         ; preds = %for.loop
  %15 = load i128, i128* %_11, align 512
  store i128 %15, i128* %dst.addr.0.0.06.gep7, align 16
  br label %.exit

.case.12:                                         ; preds = %for.loop
  %16 = load i128, i128* %_12, align 512
  store i128 %16, i128* %dst.addr.0.0.06.gep7, align 16
  br label %.exit

.case.13:                                         ; preds = %for.loop
  %17 = load i128, i128* %_13, align 512
  store i128 %17, i128* %dst.addr.0.0.06.gep7, align 16
  br label %.exit

.case.14:                                         ; preds = %for.loop
  %18 = load i128, i128* %_14, align 512
  store i128 %18, i128* %dst.addr.0.0.06.gep7, align 16
  br label %.exit

.case.15:                                         ; preds = %for.loop
  %19 = load i128, i128* %_15, align 512
  store i128 %19, i128* %dst.addr.0.0.06.gep7, align 16
  br label %.exit

.case.16:                                         ; preds = %for.loop
  %20 = load i128, i128* %_16, align 512
  store i128 %20, i128* %dst.addr.0.0.06.gep7, align 16
  br label %.exit

.case.17:                                         ; preds = %for.loop
  %21 = load i128, i128* %_17, align 512
  store i128 %21, i128* %dst.addr.0.0.06.gep7, align 16
  br label %.exit

.case.18:                                         ; preds = %for.loop
  %22 = load i128, i128* %_18, align 512
  store i128 %22, i128* %dst.addr.0.0.06.gep7, align 16
  br label %.exit

.case.19:                                         ; preds = %for.loop
  %23 = load i128, i128* %_19, align 512
  store i128 %23, i128* %dst.addr.0.0.06.gep7, align 16
  br label %.exit

.case.20:                                         ; preds = %for.loop
  %24 = load i128, i128* %_20, align 512
  store i128 %24, i128* %dst.addr.0.0.06.gep7, align 16
  br label %.exit

.case.21:                                         ; preds = %for.loop
  %25 = load i128, i128* %_21, align 512
  store i128 %25, i128* %dst.addr.0.0.06.gep7, align 16
  br label %.exit

.case.22:                                         ; preds = %for.loop
  %26 = load i128, i128* %_22, align 512
  store i128 %26, i128* %dst.addr.0.0.06.gep7, align 16
  br label %.exit

.case.23:                                         ; preds = %for.loop
  %27 = load i128, i128* %_23, align 512
  store i128 %27, i128* %dst.addr.0.0.06.gep7, align 16
  br label %.exit

.case.24:                                         ; preds = %for.loop
  %28 = load i128, i128* %_24, align 512
  store i128 %28, i128* %dst.addr.0.0.06.gep7, align 16
  br label %.exit

.case.25:                                         ; preds = %for.loop
  %29 = load i128, i128* %_25, align 512
  store i128 %29, i128* %dst.addr.0.0.06.gep7, align 16
  br label %.exit

.case.26:                                         ; preds = %for.loop
  %30 = load i128, i128* %_26, align 512
  store i128 %30, i128* %dst.addr.0.0.06.gep7, align 16
  br label %.exit

.case.27:                                         ; preds = %for.loop
  %31 = load i128, i128* %_27, align 512
  store i128 %31, i128* %dst.addr.0.0.06.gep7, align 16
  br label %.exit

.case.28:                                         ; preds = %for.loop
  %32 = load i128, i128* %_28, align 512
  store i128 %32, i128* %dst.addr.0.0.06.gep7, align 16
  br label %.exit

.case.29:                                         ; preds = %for.loop
  %33 = load i128, i128* %_29, align 512
  store i128 %33, i128* %dst.addr.0.0.06.gep7, align 16
  br label %.exit

.case.30:                                         ; preds = %for.loop
  %34 = load i128, i128* %_30, align 512
  store i128 %34, i128* %dst.addr.0.0.06.gep7, align 16
  br label %.exit

.case.31:                                         ; preds = %for.loop
  %35 = load i128, i128* %_31, align 512
  store i128 %35, i128* %dst.addr.0.0.06.gep7, align 16
  br label %.exit

.case.32:                                         ; preds = %for.loop
  %36 = load i128, i128* %_32, align 512
  store i128 %36, i128* %dst.addr.0.0.06.gep7, align 16
  br label %.exit

.case.33:                                         ; preds = %for.loop
  %37 = load i128, i128* %_33, align 512
  store i128 %37, i128* %dst.addr.0.0.06.gep7, align 16
  br label %.exit

.case.34:                                         ; preds = %for.loop
  %38 = load i128, i128* %_34, align 512
  store i128 %38, i128* %dst.addr.0.0.06.gep7, align 16
  br label %.exit

.case.35:                                         ; preds = %for.loop
  %39 = icmp eq i64 %for.loop.idx9, 35
  call void @llvm.assume(i1 %39)
  %40 = load i128, i128* %_35, align 512
  store i128 %40, i128* %dst.addr.0.0.06.gep7, align 16
  br label %.exit

.exit:                                            ; preds = %.case.35, %.case.34, %.case.33, %.case.32, %.case.31, %.case.30, %.case.29, %.case.28, %.case.27, %.case.26, %.case.25, %.case.24, %.case.23, %.case.22, %.case.21, %.case.20, %.case.19, %.case.18, %.case.17, %.case.16, %.case.15, %.case.14, %.case.13, %.case.12, %.case.11, %.case.10, %.case.9, %.case.8, %.case.7, %.case.6, %.case.5, %.case.4, %.case.3, %.case.2, %.case.1, %.case.0
  %for.loop.idx.next = add nuw nsw i64 %for.loop.idx9, 1
  %exitcond = icmp ne i64 %for.loop.idx.next, 36
  br i1 %exitcond, label %for.loop, label %ret

ret:                                              ; preds = %.exit, %entry
  ret void
}

; Function Attrs: argmemonly noinline
define internal void @copy_out([36 x %struct.ap_uint.2]* "orig.arg.no"="0", i128* noalias readonly align 512 "fpga.caller.interfaces"="layout_transformed" "orig.arg.no"="1" %_0, i128* noalias readonly align 512 "fpga.caller.interfaces"="layout_transformed" "orig.arg.no"="1" %_1, i128* noalias readonly align 512 "fpga.caller.interfaces"="layout_transformed" "orig.arg.no"="1" %_2, i128* noalias readonly align 512 "fpga.caller.interfaces"="layout_transformed" "orig.arg.no"="1" %_3, i128* noalias readonly align 512 "fpga.caller.interfaces"="layout_transformed" "orig.arg.no"="1" %_4, i128* noalias readonly align 512 "fpga.caller.interfaces"="layout_transformed" "orig.arg.no"="1" %_5, i128* noalias readonly align 512 "fpga.caller.interfaces"="layout_transformed" "orig.arg.no"="1" %_6, i128* noalias readonly align 512 "fpga.caller.interfaces"="layout_transformed" "orig.arg.no"="1" %_7, i128* noalias readonly align 512 "fpga.caller.interfaces"="layout_transformed" "orig.arg.no"="1" %_8, i128* noalias readonly align 512 "fpga.caller.interfaces"="layout_transformed" "orig.arg.no"="1" %_9, i128* noalias readonly align 512 "fpga.caller.interfaces"="layout_transformed" "orig.arg.no"="1" %_10, i128* noalias readonly align 512 "fpga.caller.interfaces"="layout_transformed" "orig.arg.no"="1" %_11, i128* noalias readonly align 512 "fpga.caller.interfaces"="layout_transformed" "orig.arg.no"="1" %_12, i128* noalias readonly align 512 "fpga.caller.interfaces"="layout_transformed" "orig.arg.no"="1" %_13, i128* noalias readonly align 512 "fpga.caller.interfaces"="layout_transformed" "orig.arg.no"="1" %_14, i128* noalias readonly align 512 "fpga.caller.interfaces"="layout_transformed" "orig.arg.no"="1" %_15, i128* noalias readonly align 512 "fpga.caller.interfaces"="layout_transformed" "orig.arg.no"="1" %_16, i128* noalias readonly align 512 "fpga.caller.interfaces"="layout_transformed" "orig.arg.no"="1" %_17, i128* noalias readonly align 512 "fpga.caller.interfaces"="layout_transformed" "orig.arg.no"="1" %_18, i128* noalias readonly align 512 "fpga.caller.interfaces"="layout_transformed" "orig.arg.no"="1" %_19, i128* noalias readonly align 512 "fpga.caller.interfaces"="layout_transformed" "orig.arg.no"="1" %_20, i128* noalias readonly align 512 "fpga.caller.interfaces"="layout_transformed" "orig.arg.no"="1" %_21, i128* noalias readonly align 512 "fpga.caller.interfaces"="layout_transformed" "orig.arg.no"="1" %_22, i128* noalias readonly align 512 "fpga.caller.interfaces"="layout_transformed" "orig.arg.no"="1" %_23, i128* noalias readonly align 512 "fpga.caller.interfaces"="layout_transformed" "orig.arg.no"="1" %_24, i128* noalias readonly align 512 "fpga.caller.interfaces"="layout_transformed" "orig.arg.no"="1" %_25, i128* noalias readonly align 512 "fpga.caller.interfaces"="layout_transformed" "orig.arg.no"="1" %_26, i128* noalias readonly align 512 "fpga.caller.interfaces"="layout_transformed" "orig.arg.no"="1" %_27, i128* noalias readonly align 512 "fpga.caller.interfaces"="layout_transformed" "orig.arg.no"="1" %_28, i128* noalias readonly align 512 "fpga.caller.interfaces"="layout_transformed" "orig.arg.no"="1" %_29, i128* noalias readonly align 512 "fpga.caller.interfaces"="layout_transformed" "orig.arg.no"="1" %_30, i128* noalias readonly align 512 "fpga.caller.interfaces"="layout_transformed" "orig.arg.no"="1" %_31, i128* noalias readonly align 512 "fpga.caller.interfaces"="layout_transformed" "orig.arg.no"="1" %_32, i128* noalias readonly align 512 "fpga.caller.interfaces"="layout_transformed" "orig.arg.no"="1" %_33, i128* noalias readonly align 512 "fpga.caller.interfaces"="layout_transformed" "orig.arg.no"="1" %_34, i128* noalias readonly align 512 "fpga.caller.interfaces"="layout_transformed" "orig.arg.no"="1" %_35, [1 x %struct.ap_uint.0]* "orig.arg.no"="2", [1 x i192]* noalias readonly align 512 "fpga.caller.interfaces"="layout_transformed" "orig.arg.no"="3") #5 {
entry:
  call void @onebyonecpy_hls.p0a36struct.ap_uint.2.213.214([36 x %struct.ap_uint.2]* %0, i128* align 512 %_0, i128* align 512 %_1, i128* align 512 %_2, i128* align 512 %_3, i128* align 512 %_4, i128* align 512 %_5, i128* align 512 %_6, i128* align 512 %_7, i128* align 512 %_8, i128* align 512 %_9, i128* align 512 %_10, i128* align 512 %_11, i128* align 512 %_12, i128* align 512 %_13, i128* align 512 %_14, i128* align 512 %_15, i128* align 512 %_16, i128* align 512 %_17, i128* align 512 %_18, i128* align 512 %_19, i128* align 512 %_20, i128* align 512 %_21, i128* align 512 %_22, i128* align 512 %_23, i128* align 512 %_24, i128* align 512 %_25, i128* align 512 %_26, i128* align 512 %_27, i128* align 512 %_28, i128* align 512 %_29, i128* align 512 %_30, i128* align 512 %_31, i128* align 512 %_32, i128* align 512 %_33, i128* align 512 %_34, i128* align 512 %_35)
  call fastcc void @onebyonecpy_hls.p0a1struct.ap_uint.0.219([1 x %struct.ap_uint.0]* %1, [1 x i192]* align 512 %2)
  ret void
}

; Function Attrs: argmemonly noinline
define internal fastcc void @onebyonecpy_hls.p0a1struct.ap_uint.0.219([1 x %struct.ap_uint.0]* noalias "fpga.caller.interfaces"="layout_transformed", [1 x i192]* noalias readonly align 512 "fpga.caller.interfaces"="layout_transformed") unnamed_addr #2 {
entry:
  %2 = icmp eq [1 x %struct.ap_uint.0]* %0, null
  %3 = icmp eq [1 x i192]* %1, null
  %4 = or i1 %2, %3
  br i1 %4, label %ret, label %for.loop

for.loop:                                         ; preds = %entry
  %5 = getelementptr [1 x i192], [1 x i192]* %1, i64 0, i32 0
  %6 = getelementptr inbounds [1 x %struct.ap_uint.0], [1 x %struct.ap_uint.0]* %0, i64 0, i32 0, i32 0, i32 0, i32 0
  %7 = load i192, i192* %5, align 512
  store i192 %7, i192* %6, align 32
  br label %ret

ret:                                              ; preds = %for.loop, %entry
  ret void
}

declare void @apatb_algo_unpacked_hw(i128*, i128*, i128*, i128*, i128*, i128*, i128*, i128*, i128*, i128*, i128*, i128*, i128*, i128*, i128*, i128*, i128*, i128*, i128*, i128*, i128*, i128*, i128*, i128*, i128*, i128*, i128*, i128*, i128*, i128*, i128*, i128*, i128*, i128*, i128*, i128*, i192*)

define void @algo_unpacked_hw_stub_wrapper(i128*, i128*, i128*, i128*, i128*, i128*, i128*, i128*, i128*, i128*, i128*, i128*, i128*, i128*, i128*, i128*, i128*, i128*, i128*, i128*, i128*, i128*, i128*, i128*, i128*, i128*, i128*, i128*, i128*, i128*, i128*, i128*, i128*, i128*, i128*, i128*, i192*) #6 {
entry:
  %37 = alloca [36 x %struct.ap_uint.2]
  %38 = alloca [1 x %struct.ap_uint.0]
  %39 = bitcast i192* %36 to [1 x i192]*
  call void @copy_out([36 x %struct.ap_uint.2]* %37, i128* %0, i128* %1, i128* %2, i128* %3, i128* %4, i128* %5, i128* %6, i128* %7, i128* %8, i128* %9, i128* %10, i128* %11, i128* %12, i128* %13, i128* %14, i128* %15, i128* %16, i128* %17, i128* %18, i128* %19, i128* %20, i128* %21, i128* %22, i128* %23, i128* %24, i128* %25, i128* %26, i128* %27, i128* %28, i128* %29, i128* %30, i128* %31, i128* %32, i128* %33, i128* %34, i128* %35, [1 x %struct.ap_uint.0]* %38, [1 x i192]* %39)
  %40 = bitcast [36 x %struct.ap_uint.2]* %37 to %struct.ap_uint.2*
  %41 = bitcast [1 x %struct.ap_uint.0]* %38 to %struct.ap_uint.0*
  call void @algo_unpacked_hw_stub(%struct.ap_uint.2* %40, %struct.ap_uint.0* %41)
  call void @copy_in([36 x %struct.ap_uint.2]* %37, i128* %0, i128* %1, i128* %2, i128* %3, i128* %4, i128* %5, i128* %6, i128* %7, i128* %8, i128* %9, i128* %10, i128* %11, i128* %12, i128* %13, i128* %14, i128* %15, i128* %16, i128* %17, i128* %18, i128* %19, i128* %20, i128* %21, i128* %22, i128* %23, i128* %24, i128* %25, i128* %26, i128* %27, i128* %28, i128* %29, i128* %30, i128* %31, i128* %32, i128* %33, i128* %34, i128* %35, [1 x %struct.ap_uint.0]* %38, [1 x i192]* %39)
  ret void
}

declare void @algo_unpacked_hw_stub(%struct.ap_uint.2*, %struct.ap_uint.0*)

attributes #0 = { inaccessiblememonly nounwind }
attributes #1 = { noinline "fpga.wrapper.func"="wrapper" }
attributes #2 = { argmemonly noinline "fpga.wrapper.func"="onebyonecpy_hls" }
attributes #3 = { nounwind }
attributes #4 = { argmemonly noinline "fpga.wrapper.func"="copyin" }
attributes #5 = { argmemonly noinline "fpga.wrapper.func"="copyout" }
attributes #6 = { "fpga.wrapper.func"="stub" }
attributes #7 = { inaccessiblememonly nounwind "xlx.port.bitwidth"="256" }

!llvm.dbg.cu = !{}
!llvm.ident = !{!0, !0, !0, !0, !0, !0, !0, !0, !0, !0, !0, !0, !0, !0, !0, !0, !0, !0, !0, !0, !0, !0, !0, !0, !0, !0, !0, !0, !0, !0, !0, !0, !0, !0, !0, !0, !0, !0, !0, !0, !0, !0, !0, !0, !0, !0, !0, !0, !0, !0, !0, !0, !0, !0, !0, !0, !0, !0, !0, !0, !0, !0, !0, !0, !0, !0, !0, !0, !0, !0, !0, !0, !0, !0, !0, !0, !0, !0, !0, !0, !0, !0, !0, !0, !0, !0, !0, !0, !0, !0, !0, !0, !0, !0, !0, !0, !0, !0, !0, !0, !0, !0, !0, !0, !0, !0, !0, !0, !0, !0, !0, !0, !0, !0, !0, !0, !0, !0, !0, !0, !0, !0, !0, !0, !0, !0, !0, !0, !0, !0, !0, !0, !0, !0, !0, !0, !0, !0, !0, !0, !0, !0, !0, !0, !0, !0, !0, !0, !0, !0, !0, !0, !0, !0, !0, !0, !0, !0, !0, !0, !0, !0, !0, !0, !0, !0, !0, !0, !0, !0, !0, !0, !0, !0, !0, !0, !0, !0, !0, !0, !0, !0, !0, !0, !0, !0, !0, !0, !0, !0, !0, !0, !0, !0, !0, !0, !0, !0, !0, !0, !0, !0, !0, !0, !0, !0, !0, !0, !0, !0, !0, !0, !0, !0, !0, !0, !0, !0, !0, !0, !0, !0, !0, !0, !0, !0, !0, !0, !0, !0, !0, !0, !0, !0, !0, !0, !0, !0, !0, !0, !0, !0, !0, !0, !0, !0, !0, !0, !0, !0, !0, !0, !0, !0, !0, !0, !0, !0, !0, !0, !0, !0, !0, !0, !0, !0, !0, !0, !0, !0, !0, !0, !0, !0, !0, !0, !0, !0, !0, !0, !0, !0, !0, !0, !0, !0, !0, !0, !0, !0, !0, !0, !0, !0, !0, !0, !0, !0, !0, !0, !0, !0, !0, !0, !0, !0, !0, !0, !0, !0, !0, !0, !0, !0, !0, !0, !0, !0, !0, !0, !0, !0, !0, !0, !0, !0, !0, !0, !0, !0, !0, !0, !0, !0, !0, !0, !0, !0, !0, !0, !0, !0, !0, !0, !0, !0, !0, !0, !0, !0, !0, !0, !0, !0, !0, !0, !0, !0, !0, !0, !0, !0, !0, !0, !0, !0, !0, !0, !0, !0, !0, !0, !0, !0, !0, !0, !0, !0, !0, !0, !0, !0, !0, !0, !0, !0, !0, !0, !0, !0, !0, !0, !0, !0, !0, !0, !0, !0, !0, !0, !0, !0, !0, !0, !0, !0, !0, !0, !0, !0, !0, !0, !0, !0, !0, !0, !0, !0, !0, !0, !0, !0, !0, !0, !0, !0, !0, !0, !0, !0, !0, !0, !0, !0, !0, !0, !0, !0, !0, !0, !0, !0, !0, !0, !0, !0, !0, !0, !0, !0, !0, !0, !0, !0, !0, !0, !0, !0, !0, !0, !0, !0, !0, !0, !0, !0, !0, !0, !0, !0, !0, !0, !0, !0, !0, !0, !0, !0, !0, !0, !0, !0, !0, !0, !0, !0, !0, !0, !0, !0, !0, !0, !0, !0, !0, !0, !0, !0, !0, !0, !0, !0, !0, !0, !0, !0, !0, !0, !0, !0, !0, !0, !0, !0, !0, !0, !0, !0, !0, !0, !0, !0, !0, !0, !0, !0, !0, !0, !0, !0, !0, !0, !0, !0, !0, !0, !0, !0, !0, !0, !0, !0, !0, !0, !0, !0, !0, !0, !0, !0, !0, !0, !0, !0, !0, !0, !0, !0, !0, !0, !0, !0, !0, !0, !0, !0, !0, !0, !0, !0, !0, !0, !0, !0, !0, !0, !0, !0, !0, !0, !0, !0, !0, !0, !0, !0}
!llvm.module.flags = !{!1, !2, !3}
!blackbox_cfg = !{!4}

!0 = !{!"clang version 7.0.0 "}
!1 = !{i32 2, !"Dwarf Version", i32 4}
!2 = !{i32 2, !"Debug Info Version", i32 3}
!3 = !{i32 1, !"wchar_size", i32 4}
!4 = !{}
!5 = !DILocation(line: 36, column: 9, scope: !6)
!6 = distinct !DISubprogram(name: "algo_unpacked", linkageName: "_Z13algo_unpackedP7ap_uintILi128EEPS_ILi192EE", scope: !7, file: !7, line: 32, type: !8, isLocal: false, isDefinition: true, scopeLine: 33, flags: DIFlagPrototyped, isOptimized: false, unit: !996, variables: !4)
!7 = !DIFile(filename: "src/algo_unpacked.cpp", directory: "/afs/hep.wisc.edu/home/mbileska/WOMBATv2HLS/duo/testMisc20/vivado_hls_duo")
!8 = !DISubroutineType(types: !9)
!9 = !{null, !10, !524}
!10 = !DIDerivedType(tag: DW_TAG_pointer_type, baseType: !11, size: 64)
!11 = distinct !DICompositeType(tag: DW_TAG_structure_type, name: "ap_uint<128>", file: !12, line: 210, size: 128, flags: DIFlagTypePassByValue, elements: !13, templateParams: !523, identifier: "_ZTS7ap_uintILi128EE")
!12 = !DIFile(filename: "/opt/Xilinx/Vitis_HLS/2021.1/common/technology/autopilot/ap_int.h", directory: "/afs/hep.wisc.edu/home/mbileska/WOMBATv2HLS/duo/testMisc20/vivado_hls_duo")
!13 = !{!14, !446, !450, !453, !456, !459, !462, !465, !468, !471, !474, !477, !480, !483, !486, !489, !492, !495, !498, !501, !504, !510, !516, !520}
!14 = !DIDerivedType(tag: DW_TAG_inheritance, scope: !11, baseType: !15)
!15 = distinct !DICompositeType(tag: DW_TAG_structure_type, name: "ap_int_base<128, false>", file: !16, line: 147, size: 128, flags: DIFlagTypePassByValue, elements: !17, templateParams: !416, identifier: "_ZTS11ap_int_baseILi128ELb0EE")
!16 = !DIFile(filename: "/opt/Xilinx/Vitis_HLS/2021.1/common/technology/autopilot/ap_int_base.h", directory: "/afs/hep.wisc.edu/home/mbileska/WOMBATv2HLS/duo/testMisc20/vivado_hls_duo")
!17 = !{!18, !33, !35, !37, !42, !46, !49, !54, !59, !64, !69, !74, !77, !82, !87, !92, !99, !105, !110, !114, !118, !122, !125, !130, !134, !139, !140, !144, !147, !150, !153, !156, !159, !162, !165, !168, !171, !174, !177, !180, !183, !191, !194, !197, !200, !203, !206, !209, !210, !213, !216, !219, !222, !225, !228, !231, !234, !238, !239, !240, !241, !244, !245, !248, !251, !252, !255, !256, !257, !258, !259, !260, !261, !264, !265, !266, !277, !278, !281, !294, !295, !296, !418, !421, !424, !427, !428, !429, !433, !434, !435, !436, !437, !438, !439, !440, !441, !442, !443}
!18 = !DIDerivedType(tag: DW_TAG_inheritance, scope: !15, baseType: !19)
!19 = distinct !DICompositeType(tag: DW_TAG_structure_type, name: "ssdm_int<128, false>", file: !20, line: 518, size: 128, flags: DIFlagTypePassByValue, elements: !21, templateParams: !28, identifier: "_ZTS8ssdm_intILi128ELb0EE")
!20 = !DIFile(filename: "/opt/Xilinx/Vitis_HLS/2021.1/common/technology/autopilot/ap_common.h", directory: "/afs/hep.wisc.edu/home/mbileska/WOMBATv2HLS/duo/testMisc20/vivado_hls_duo")
!21 = !{!22, !24}
!22 = !DIDerivedType(tag: DW_TAG_member, name: "V", scope: !19, file: !20, line: 519, baseType: !23, size: 128)
!23 = !DIBasicType(name: "unsigned __int128", size: 128, encoding: DW_ATE_unsigned)
!24 = !DISubprogram(name: "ssdm_int", scope: !19, file: !20, line: 520, type: !25, isLocal: false, isDefinition: false, scopeLine: 520, flags: DIFlagPrototyped, isOptimized: false)
!25 = !DISubroutineType(types: !26)
!26 = !{null, !27}
!27 = !DIDerivedType(tag: DW_TAG_pointer_type, baseType: !19, size: 64, flags: DIFlagArtificial | DIFlagObjectPointer)
!28 = !{!29, !31}
!29 = !DITemplateValueParameter(name: "_AP_N", type: !30, value: i32 128)
!30 = !DIBasicType(name: "int", size: 32, encoding: DW_ATE_signed)
!31 = !DITemplateValueParameter(name: "_AP_S", type: !32, value: i8 0)
!32 = !DIBasicType(name: "bool", size: 8, encoding: DW_ATE_boolean)
!33 = !DIDerivedType(tag: DW_TAG_member, name: "width", scope: !15, file: !16, line: 169, baseType: !34, flags: DIFlagStaticMember, extraData: i32 128)
!34 = !DIDerivedType(tag: DW_TAG_const_type, baseType: !30)
!35 = !DIDerivedType(tag: DW_TAG_member, name: "sign_flag", scope: !15, file: !16, line: 170, baseType: !36, flags: DIFlagStaticMember, extraData: i1 false)
!36 = !DIDerivedType(tag: DW_TAG_const_type, baseType: !32)
!37 = !DISubprogram(name: "countLeadingOnes", linkageName: "_ZNK11ap_int_baseILi128ELb0EE16countLeadingOnesEv", scope: !15, file: !16, line: 149, type: !38, isLocal: false, isDefinition: false, scopeLine: 149, flags: DIFlagPrivate | DIFlagPrototyped, isOptimized: false)
!38 = !DISubroutineType(types: !39)
!39 = !{!30, !40}
!40 = !DIDerivedType(tag: DW_TAG_pointer_type, baseType: !41, size: 64, flags: DIFlagArtificial | DIFlagObjectPointer)
!41 = !DIDerivedType(tag: DW_TAG_const_type, baseType: !15)
!42 = !DISubprogram(name: "ap_int_base", scope: !15, file: !16, line: 214, type: !43, isLocal: false, isDefinition: false, scopeLine: 214, flags: DIFlagPrototyped, isOptimized: false)
!43 = !DISubroutineType(types: !44)
!44 = !{null, !45}
!45 = !DIDerivedType(tag: DW_TAG_pointer_type, baseType: !15, size: 64, flags: DIFlagArtificial | DIFlagObjectPointer)
!46 = !DISubprogram(name: "ap_int_base", scope: !15, file: !16, line: 247, type: !47, isLocal: false, isDefinition: false, scopeLine: 247, flags: DIFlagPrototyped, isOptimized: false)
!47 = !DISubroutineType(types: !48)
!48 = !{null, !45, !36}
!49 = !DISubprogram(name: "ap_int_base", scope: !15, file: !16, line: 248, type: !50, isLocal: false, isDefinition: false, scopeLine: 248, flags: DIFlagPrototyped, isOptimized: false)
!50 = !DISubroutineType(types: !51)
!51 = !{null, !45, !52}
!52 = !DIDerivedType(tag: DW_TAG_const_type, baseType: !53)
!53 = !DIBasicType(name: "char", size: 8, encoding: DW_ATE_signed_char)
!54 = !DISubprogram(name: "ap_int_base", scope: !15, file: !16, line: 249, type: !55, isLocal: false, isDefinition: false, scopeLine: 249, flags: DIFlagPrototyped, isOptimized: false)
!55 = !DISubroutineType(types: !56)
!56 = !{null, !45, !57}
!57 = !DIDerivedType(tag: DW_TAG_const_type, baseType: !58)
!58 = !DIBasicType(name: "signed char", size: 8, encoding: DW_ATE_signed_char)
!59 = !DISubprogram(name: "ap_int_base", scope: !15, file: !16, line: 250, type: !60, isLocal: false, isDefinition: false, scopeLine: 250, flags: DIFlagPrototyped, isOptimized: false)
!60 = !DISubroutineType(types: !61)
!61 = !{null, !45, !62}
!62 = !DIDerivedType(tag: DW_TAG_const_type, baseType: !63)
!63 = !DIBasicType(name: "unsigned char", size: 8, encoding: DW_ATE_unsigned_char)
!64 = !DISubprogram(name: "ap_int_base", scope: !15, file: !16, line: 251, type: !65, isLocal: false, isDefinition: false, scopeLine: 251, flags: DIFlagPrototyped, isOptimized: false)
!65 = !DISubroutineType(types: !66)
!66 = !{null, !45, !67}
!67 = !DIDerivedType(tag: DW_TAG_const_type, baseType: !68)
!68 = !DIBasicType(name: "short", size: 16, encoding: DW_ATE_signed)
!69 = !DISubprogram(name: "ap_int_base", scope: !15, file: !16, line: 252, type: !70, isLocal: false, isDefinition: false, scopeLine: 252, flags: DIFlagPrototyped, isOptimized: false)
!70 = !DISubroutineType(types: !71)
!71 = !{null, !45, !72}
!72 = !DIDerivedType(tag: DW_TAG_const_type, baseType: !73)
!73 = !DIBasicType(name: "unsigned short", size: 16, encoding: DW_ATE_unsigned)
!74 = !DISubprogram(name: "ap_int_base", scope: !15, file: !16, line: 253, type: !75, isLocal: false, isDefinition: false, scopeLine: 253, flags: DIFlagPrototyped, isOptimized: false)
!75 = !DISubroutineType(types: !76)
!76 = !{null, !45, !34}
!77 = !DISubprogram(name: "ap_int_base", scope: !15, file: !16, line: 254, type: !78, isLocal: false, isDefinition: false, scopeLine: 254, flags: DIFlagPrototyped, isOptimized: false)
!78 = !DISubroutineType(types: !79)
!79 = !{null, !45, !80}
!80 = !DIDerivedType(tag: DW_TAG_const_type, baseType: !81)
!81 = !DIBasicType(name: "unsigned int", size: 32, encoding: DW_ATE_unsigned)
!82 = !DISubprogram(name: "ap_int_base", scope: !15, file: !16, line: 255, type: !83, isLocal: false, isDefinition: false, scopeLine: 255, flags: DIFlagPrototyped, isOptimized: false)
!83 = !DISubroutineType(types: !84)
!84 = !{null, !45, !85}
!85 = !DIDerivedType(tag: DW_TAG_const_type, baseType: !86)
!86 = !DIBasicType(name: "long int", size: 64, encoding: DW_ATE_signed)
!87 = !DISubprogram(name: "ap_int_base", scope: !15, file: !16, line: 256, type: !88, isLocal: false, isDefinition: false, scopeLine: 256, flags: DIFlagPrototyped, isOptimized: false)
!88 = !DISubroutineType(types: !89)
!89 = !{null, !45, !90}
!90 = !DIDerivedType(tag: DW_TAG_const_type, baseType: !91)
!91 = !DIBasicType(name: "long unsigned int", size: 64, encoding: DW_ATE_unsigned)
!92 = !DISubprogram(name: "ap_int_base", scope: !15, file: !16, line: 257, type: !93, isLocal: false, isDefinition: false, scopeLine: 257, flags: DIFlagPrototyped, isOptimized: false)
!93 = !DISubroutineType(types: !94)
!94 = !{null, !45, !95}
!95 = !DIDerivedType(tag: DW_TAG_const_type, baseType: !96)
!96 = !DIDerivedType(tag: DW_TAG_typedef, name: "ap_slong", file: !97, line: 233, baseType: !98)
!97 = !DIFile(filename: "/opt/Xilinx/Vitis_HLS/2021.1/common/technology/autopilot/ap_decl.h", directory: "/afs/hep.wisc.edu/home/mbileska/WOMBATv2HLS/duo/testMisc20/vivado_hls_duo")
!98 = !DIBasicType(name: "long long int", size: 64, encoding: DW_ATE_signed)
!99 = !DISubprogram(name: "ap_int_base", scope: !15, file: !16, line: 258, type: !100, isLocal: false, isDefinition: false, scopeLine: 258, flags: DIFlagPrototyped, isOptimized: false)
!100 = !DISubroutineType(types: !101)
!101 = !{null, !45, !102}
!102 = !DIDerivedType(tag: DW_TAG_const_type, baseType: !103)
!103 = !DIDerivedType(tag: DW_TAG_typedef, name: "ap_ulong", file: !97, line: 234, baseType: !104)
!104 = !DIBasicType(name: "long long unsigned int", size: 64, encoding: DW_ATE_unsigned)
!105 = !DISubprogram(name: "ap_int_base", scope: !15, file: !16, line: 263, type: !106, isLocal: false, isDefinition: false, scopeLine: 263, flags: DIFlagPrototyped, isOptimized: false)
!106 = !DISubroutineType(types: !107)
!107 = !{null, !45, !108}
!108 = !DIDerivedType(tag: DW_TAG_typedef, name: "half", file: !20, line: 612, baseType: !109)
!109 = !DIBasicType(name: "__fp16", size: 16, encoding: DW_ATE_float)
!110 = !DISubprogram(name: "ap_int_base", scope: !15, file: !16, line: 269, type: !111, isLocal: false, isDefinition: false, scopeLine: 269, flags: DIFlagPrototyped, isOptimized: false)
!111 = !DISubroutineType(types: !112)
!112 = !{null, !45, !113}
!113 = !DIBasicType(name: "float", size: 32, encoding: DW_ATE_float)
!114 = !DISubprogram(name: "ap_int_base", scope: !15, file: !16, line: 328, type: !115, isLocal: false, isDefinition: false, scopeLine: 328, flags: DIFlagPrototyped, isOptimized: false)
!115 = !DISubroutineType(types: !116)
!116 = !{null, !45, !117}
!117 = !DIBasicType(name: "double", size: 64, encoding: DW_ATE_float)
!118 = !DISubprogram(name: "ap_int_base", scope: !15, file: !16, line: 424, type: !119, isLocal: false, isDefinition: false, scopeLine: 424, flags: DIFlagPrototyped, isOptimized: false)
!119 = !DISubroutineType(types: !120)
!120 = !{null, !45, !121}
!121 = !DIDerivedType(tag: DW_TAG_pointer_type, baseType: !52, size: 64)
!122 = !DISubprogram(name: "ap_int_base", scope: !15, file: !16, line: 430, type: !123, isLocal: false, isDefinition: false, scopeLine: 430, flags: DIFlagPrototyped, isOptimized: false)
!123 = !DISubroutineType(types: !124)
!124 = !{null, !45, !121, !58}
!125 = !DISubprogram(name: "read", linkageName: "_ZNV11ap_int_baseILi128ELb0EE4readEv", scope: !15, file: !16, line: 452, type: !126, isLocal: false, isDefinition: false, scopeLine: 452, flags: DIFlagPrototyped, isOptimized: false)
!126 = !DISubroutineType(types: !127)
!127 = !{!15, !128}
!128 = !DIDerivedType(tag: DW_TAG_pointer_type, baseType: !129, size: 64, flags: DIFlagArtificial | DIFlagObjectPointer)
!129 = !DIDerivedType(tag: DW_TAG_volatile_type, baseType: !15)
!130 = !DISubprogram(name: "write", linkageName: "_ZNV11ap_int_baseILi128ELb0EE5writeERKS0_", scope: !15, file: !16, line: 459, type: !131, isLocal: false, isDefinition: false, scopeLine: 459, flags: DIFlagPrototyped, isOptimized: false)
!131 = !DISubroutineType(types: !132)
!132 = !{null, !128, !133}
!133 = !DIDerivedType(tag: DW_TAG_reference_type, baseType: !41, size: 64)
!134 = !DISubprogram(name: "operator=", linkageName: "_ZNV11ap_int_baseILi128ELb0EEaSERVKS0_", scope: !15, file: !16, line: 471, type: !135, isLocal: false, isDefinition: false, scopeLine: 471, flags: DIFlagPrototyped, isOptimized: false)
!135 = !DISubroutineType(types: !136)
!136 = !{null, !128, !137}
!137 = !DIDerivedType(tag: DW_TAG_reference_type, baseType: !138, size: 64)
!138 = !DIDerivedType(tag: DW_TAG_const_type, baseType: !129)
!139 = !DISubprogram(name: "operator=", linkageName: "_ZNV11ap_int_baseILi128ELb0EEaSERKS0_", scope: !15, file: !16, line: 481, type: !131, isLocal: false, isDefinition: false, scopeLine: 481, flags: DIFlagPrototyped, isOptimized: false)
!140 = !DISubprogram(name: "operator=", linkageName: "_ZN11ap_int_baseILi128ELb0EEaSERVKS0_", scope: !15, file: !16, line: 498, type: !141, isLocal: false, isDefinition: false, scopeLine: 498, flags: DIFlagPrototyped, isOptimized: false)
!141 = !DISubroutineType(types: !142)
!142 = !{!143, !45, !137}
!143 = !DIDerivedType(tag: DW_TAG_reference_type, baseType: !15, size: 64)
!144 = !DISubprogram(name: "operator=", linkageName: "_ZN11ap_int_baseILi128ELb0EEaSERKS0_", scope: !15, file: !16, line: 503, type: !145, isLocal: false, isDefinition: false, scopeLine: 503, flags: DIFlagPrototyped, isOptimized: false)
!145 = !DISubroutineType(types: !146)
!146 = !{!143, !45, !133}
!147 = !DISubprogram(name: "operator=", linkageName: "_ZN11ap_int_baseILi128ELb0EEaSEb", scope: !15, file: !16, line: 511, type: !148, isLocal: false, isDefinition: false, scopeLine: 511, flags: DIFlagPrototyped, isOptimized: false)
!148 = !DISubroutineType(types: !149)
!149 = !{!143, !45, !32}
!150 = !DISubprogram(name: "operator=", linkageName: "_ZN11ap_int_baseILi128ELb0EEaSEc", scope: !15, file: !16, line: 512, type: !151, isLocal: false, isDefinition: false, scopeLine: 512, flags: DIFlagPrototyped, isOptimized: false)
!151 = !DISubroutineType(types: !152)
!152 = !{!143, !45, !53}
!153 = !DISubprogram(name: "operator=", linkageName: "_ZN11ap_int_baseILi128ELb0EEaSEa", scope: !15, file: !16, line: 513, type: !154, isLocal: false, isDefinition: false, scopeLine: 513, flags: DIFlagPrototyped, isOptimized: false)
!154 = !DISubroutineType(types: !155)
!155 = !{!143, !45, !58}
!156 = !DISubprogram(name: "operator=", linkageName: "_ZN11ap_int_baseILi128ELb0EEaSEh", scope: !15, file: !16, line: 514, type: !157, isLocal: false, isDefinition: false, scopeLine: 514, flags: DIFlagPrototyped, isOptimized: false)
!157 = !DISubroutineType(types: !158)
!158 = !{!143, !45, !63}
!159 = !DISubprogram(name: "operator=", linkageName: "_ZN11ap_int_baseILi128ELb0EEaSEs", scope: !15, file: !16, line: 515, type: !160, isLocal: false, isDefinition: false, scopeLine: 515, flags: DIFlagPrototyped, isOptimized: false)
!160 = !DISubroutineType(types: !161)
!161 = !{!143, !45, !68}
!162 = !DISubprogram(name: "operator=", linkageName: "_ZN11ap_int_baseILi128ELb0EEaSEt", scope: !15, file: !16, line: 516, type: !163, isLocal: false, isDefinition: false, scopeLine: 516, flags: DIFlagPrototyped, isOptimized: false)
!163 = !DISubroutineType(types: !164)
!164 = !{!143, !45, !73}
!165 = !DISubprogram(name: "operator=", linkageName: "_ZN11ap_int_baseILi128ELb0EEaSEi", scope: !15, file: !16, line: 517, type: !166, isLocal: false, isDefinition: false, scopeLine: 517, flags: DIFlagPrototyped, isOptimized: false)
!166 = !DISubroutineType(types: !167)
!167 = !{!143, !45, !30}
!168 = !DISubprogram(name: "operator=", linkageName: "_ZN11ap_int_baseILi128ELb0EEaSEj", scope: !15, file: !16, line: 518, type: !169, isLocal: false, isDefinition: false, scopeLine: 518, flags: DIFlagPrototyped, isOptimized: false)
!169 = !DISubroutineType(types: !170)
!170 = !{!143, !45, !81}
!171 = !DISubprogram(name: "operator=", linkageName: "_ZN11ap_int_baseILi128ELb0EEaSEl", scope: !15, file: !16, line: 519, type: !172, isLocal: false, isDefinition: false, scopeLine: 519, flags: DIFlagPrototyped, isOptimized: false)
!172 = !DISubroutineType(types: !173)
!173 = !{!143, !45, !86}
!174 = !DISubprogram(name: "operator=", linkageName: "_ZN11ap_int_baseILi128ELb0EEaSEm", scope: !15, file: !16, line: 520, type: !175, isLocal: false, isDefinition: false, scopeLine: 520, flags: DIFlagPrototyped, isOptimized: false)
!175 = !DISubroutineType(types: !176)
!176 = !{!143, !45, !91}
!177 = !DISubprogram(name: "operator=", linkageName: "_ZN11ap_int_baseILi128ELb0EEaSEx", scope: !15, file: !16, line: 521, type: !178, isLocal: false, isDefinition: false, scopeLine: 521, flags: DIFlagPrototyped, isOptimized: false)
!178 = !DISubroutineType(types: !179)
!179 = !{!143, !45, !96}
!180 = !DISubprogram(name: "operator=", linkageName: "_ZN11ap_int_baseILi128ELb0EEaSEy", scope: !15, file: !16, line: 522, type: !181, isLocal: false, isDefinition: false, scopeLine: 522, flags: DIFlagPrototyped, isOptimized: false)
!181 = !DISubroutineType(types: !182)
!182 = !{!143, !45, !103}
!183 = !DISubprogram(name: "operator unsigned long long", linkageName: "_ZNK11ap_int_baseILi128ELb0EEcvyEv", scope: !15, file: !16, line: 573, type: !184, isLocal: false, isDefinition: false, scopeLine: 573, flags: DIFlagPrototyped, isOptimized: false)
!184 = !DISubroutineType(types: !185)
!185 = !{!186, !40}
!186 = !DIDerivedType(tag: DW_TAG_typedef, name: "RetType", scope: !15, file: !16, line: 167, baseType: !187)
!187 = !DIDerivedType(tag: DW_TAG_typedef, name: "Type", scope: !188, file: !16, line: 90, baseType: !103)
!188 = distinct !DICompositeType(tag: DW_TAG_structure_type, name: "retval<16, false>", file: !16, line: 89, size: 8, flags: DIFlagTypePassByValue, elements: !4, templateParams: !189, identifier: "_ZTS6retvalILi16ELb0EE")
!189 = !{!190, !31}
!190 = !DITemplateValueParameter(name: "_AP_N", type: !30, value: i32 16)
!191 = !DISubprogram(name: "to_bool", linkageName: "_ZNK11ap_int_baseILi128ELb0EE7to_boolEv", scope: !15, file: !16, line: 578, type: !192, isLocal: false, isDefinition: false, scopeLine: 578, flags: DIFlagPrototyped, isOptimized: false)
!192 = !DISubroutineType(types: !193)
!193 = !{!32, !40}
!194 = !DISubprogram(name: "to_char", linkageName: "_ZNK11ap_int_baseILi128ELb0EE7to_charEv", scope: !15, file: !16, line: 579, type: !195, isLocal: false, isDefinition: false, scopeLine: 579, flags: DIFlagPrototyped, isOptimized: false)
!195 = !DISubroutineType(types: !196)
!196 = !{!53, !40}
!197 = !DISubprogram(name: "to_schar", linkageName: "_ZNK11ap_int_baseILi128ELb0EE8to_scharEv", scope: !15, file: !16, line: 580, type: !198, isLocal: false, isDefinition: false, scopeLine: 580, flags: DIFlagPrototyped, isOptimized: false)
!198 = !DISubroutineType(types: !199)
!199 = !{!58, !40}
!200 = !DISubprogram(name: "to_uchar", linkageName: "_ZNK11ap_int_baseILi128ELb0EE8to_ucharEv", scope: !15, file: !16, line: 581, type: !201, isLocal: false, isDefinition: false, scopeLine: 581, flags: DIFlagPrototyped, isOptimized: false)
!201 = !DISubroutineType(types: !202)
!202 = !{!63, !40}
!203 = !DISubprogram(name: "to_short", linkageName: "_ZNK11ap_int_baseILi128ELb0EE8to_shortEv", scope: !15, file: !16, line: 582, type: !204, isLocal: false, isDefinition: false, scopeLine: 582, flags: DIFlagPrototyped, isOptimized: false)
!204 = !DISubroutineType(types: !205)
!205 = !{!68, !40}
!206 = !DISubprogram(name: "to_ushort", linkageName: "_ZNK11ap_int_baseILi128ELb0EE9to_ushortEv", scope: !15, file: !16, line: 583, type: !207, isLocal: false, isDefinition: false, scopeLine: 583, flags: DIFlagPrototyped, isOptimized: false)
!207 = !DISubroutineType(types: !208)
!208 = !{!73, !40}
!209 = !DISubprogram(name: "to_int", linkageName: "_ZNK11ap_int_baseILi128ELb0EE6to_intEv", scope: !15, file: !16, line: 584, type: !38, isLocal: false, isDefinition: false, scopeLine: 584, flags: DIFlagPrototyped, isOptimized: false)
!210 = !DISubprogram(name: "to_uint", linkageName: "_ZNK11ap_int_baseILi128ELb0EE7to_uintEv", scope: !15, file: !16, line: 585, type: !211, isLocal: false, isDefinition: false, scopeLine: 585, flags: DIFlagPrototyped, isOptimized: false)
!211 = !DISubroutineType(types: !212)
!212 = !{!81, !40}
!213 = !DISubprogram(name: "to_long", linkageName: "_ZNK11ap_int_baseILi128ELb0EE7to_longEv", scope: !15, file: !16, line: 586, type: !214, isLocal: false, isDefinition: false, scopeLine: 586, flags: DIFlagPrototyped, isOptimized: false)
!214 = !DISubroutineType(types: !215)
!215 = !{!86, !40}
!216 = !DISubprogram(name: "to_ulong", linkageName: "_ZNK11ap_int_baseILi128ELb0EE8to_ulongEv", scope: !15, file: !16, line: 587, type: !217, isLocal: false, isDefinition: false, scopeLine: 587, flags: DIFlagPrototyped, isOptimized: false)
!217 = !DISubroutineType(types: !218)
!218 = !{!91, !40}
!219 = !DISubprogram(name: "to_int64", linkageName: "_ZNK11ap_int_baseILi128ELb0EE8to_int64Ev", scope: !15, file: !16, line: 588, type: !220, isLocal: false, isDefinition: false, scopeLine: 588, flags: DIFlagPrototyped, isOptimized: false)
!220 = !DISubroutineType(types: !221)
!221 = !{!96, !40}
!222 = !DISubprogram(name: "to_uint64", linkageName: "_ZNK11ap_int_baseILi128ELb0EE9to_uint64Ev", scope: !15, file: !16, line: 589, type: !223, isLocal: false, isDefinition: false, scopeLine: 589, flags: DIFlagPrototyped, isOptimized: false)
!223 = !DISubroutineType(types: !224)
!224 = !{!103, !40}
!225 = !DISubprogram(name: "to_half", linkageName: "_ZNK11ap_int_baseILi128ELb0EE7to_halfEv", scope: !15, file: !16, line: 590, type: !226, isLocal: false, isDefinition: false, scopeLine: 590, flags: DIFlagPrototyped, isOptimized: false)
!226 = !DISubroutineType(types: !227)
!227 = !{!108, !40}
!228 = !DISubprogram(name: "to_float", linkageName: "_ZNK11ap_int_baseILi128ELb0EE8to_floatEv", scope: !15, file: !16, line: 591, type: !229, isLocal: false, isDefinition: false, scopeLine: 591, flags: DIFlagPrototyped, isOptimized: false)
!229 = !DISubroutineType(types: !230)
!230 = !{!113, !40}
!231 = !DISubprogram(name: "to_double", linkageName: "_ZNK11ap_int_baseILi128ELb0EE9to_doubleEv", scope: !15, file: !16, line: 592, type: !232, isLocal: false, isDefinition: false, scopeLine: 592, flags: DIFlagPrototyped, isOptimized: false)
!232 = !DISubroutineType(types: !233)
!233 = !{!117, !40}
!234 = !DISubprogram(name: "length", linkageName: "_ZNVK11ap_int_baseILi128ELb0EE6lengthEv", scope: !15, file: !16, line: 616, type: !235, isLocal: false, isDefinition: false, scopeLine: 616, flags: DIFlagPrototyped, isOptimized: false)
!235 = !DISubroutineType(types: !236)
!236 = !{!30, !237}
!237 = !DIDerivedType(tag: DW_TAG_pointer_type, baseType: !138, size: 64, flags: DIFlagArtificial | DIFlagObjectPointer)
!238 = !DISubprogram(name: "iszero", linkageName: "_ZNK11ap_int_baseILi128ELb0EE6iszeroEv", scope: !15, file: !16, line: 619, type: !192, isLocal: false, isDefinition: false, scopeLine: 619, flags: DIFlagPrototyped, isOptimized: false)
!239 = !DISubprogram(name: "is_zero", linkageName: "_ZNK11ap_int_baseILi128ELb0EE7is_zeroEv", scope: !15, file: !16, line: 622, type: !192, isLocal: false, isDefinition: false, scopeLine: 622, flags: DIFlagPrototyped, isOptimized: false)
!240 = !DISubprogram(name: "sign", linkageName: "_ZNK11ap_int_baseILi128ELb0EE4signEv", scope: !15, file: !16, line: 625, type: !192, isLocal: false, isDefinition: false, scopeLine: 625, flags: DIFlagPrototyped, isOptimized: false)
!241 = !DISubprogram(name: "clear", linkageName: "_ZN11ap_int_baseILi128ELb0EE5clearEi", scope: !15, file: !16, line: 634, type: !242, isLocal: false, isDefinition: false, scopeLine: 634, flags: DIFlagPrototyped, isOptimized: false)
!242 = !DISubroutineType(types: !243)
!243 = !{null, !45, !30}
!244 = !DISubprogram(name: "invert", linkageName: "_ZN11ap_int_baseILi128ELb0EE6invertEi", scope: !15, file: !16, line: 640, type: !242, isLocal: false, isDefinition: false, scopeLine: 640, flags: DIFlagPrototyped, isOptimized: false)
!245 = !DISubprogram(name: "test", linkageName: "_ZNK11ap_int_baseILi128ELb0EE4testEi", scope: !15, file: !16, line: 649, type: !246, isLocal: false, isDefinition: false, scopeLine: 649, flags: DIFlagPrototyped, isOptimized: false)
!246 = !DISubroutineType(types: !247)
!247 = !{!32, !40, !30}
!248 = !DISubprogram(name: "get", linkageName: "_ZN11ap_int_baseILi128ELb0EE3getEv", scope: !15, file: !16, line: 655, type: !249, isLocal: false, isDefinition: false, scopeLine: 655, flags: DIFlagPrototyped, isOptimized: false)
!249 = !DISubroutineType(types: !250)
!250 = !{!143, !45}
!251 = !DISubprogram(name: "set", linkageName: "_ZN11ap_int_baseILi128ELb0EE3setEi", scope: !15, file: !16, line: 658, type: !242, isLocal: false, isDefinition: false, scopeLine: 658, flags: DIFlagPrototyped, isOptimized: false)
!252 = !DISubprogram(name: "set", linkageName: "_ZN11ap_int_baseILi128ELb0EE3setEib", scope: !15, file: !16, line: 664, type: !253, isLocal: false, isDefinition: false, scopeLine: 664, flags: DIFlagPrototyped, isOptimized: false)
!253 = !DISubroutineType(types: !254)
!254 = !{null, !45, !30, !32}
!255 = !DISubprogram(name: "lrotate", linkageName: "_ZN11ap_int_baseILi128ELb0EE7lrotateEi", scope: !15, file: !16, line: 671, type: !166, isLocal: false, isDefinition: false, scopeLine: 671, flags: DIFlagPrototyped, isOptimized: false)
!256 = !DISubprogram(name: "rrotate", linkageName: "_ZN11ap_int_baseILi128ELb0EE7rrotateEi", scope: !15, file: !16, line: 686, type: !166, isLocal: false, isDefinition: false, scopeLine: 686, flags: DIFlagPrototyped, isOptimized: false)
!257 = !DISubprogram(name: "reverse", linkageName: "_ZN11ap_int_baseILi128ELb0EE7reverseEv", scope: !15, file: !16, line: 701, type: !249, isLocal: false, isDefinition: false, scopeLine: 701, flags: DIFlagPrototyped, isOptimized: false)
!258 = !DISubprogram(name: "set_bit", linkageName: "_ZN11ap_int_baseILi128ELb0EE7set_bitEib", scope: !15, file: !16, line: 707, type: !253, isLocal: false, isDefinition: false, scopeLine: 707, flags: DIFlagPrototyped, isOptimized: false)
!259 = !DISubprogram(name: "get_bit", linkageName: "_ZNK11ap_int_baseILi128ELb0EE7get_bitEi", scope: !15, file: !16, line: 712, type: !246, isLocal: false, isDefinition: false, scopeLine: 712, flags: DIFlagPrototyped, isOptimized: false)
!260 = !DISubprogram(name: "b_not", linkageName: "_ZN11ap_int_baseILi128ELb0EE5b_notEv", scope: !15, file: !16, line: 717, type: !43, isLocal: false, isDefinition: false, scopeLine: 717, flags: DIFlagPrototyped, isOptimized: false)
!261 = !DISubprogram(name: "checkOverflowCsim", linkageName: "_ZNK11ap_int_baseILi128ELb0EE17checkOverflowCsimEibb", scope: !15, file: !16, line: 791, type: !262, isLocal: false, isDefinition: false, scopeLine: 791, flags: DIFlagPrototyped, isOptimized: false)
!262 = !DISubroutineType(types: !263)
!263 = !{!32, !40, !30, !32, !32}
!264 = !DISubprogram(name: "operator++", linkageName: "_ZN11ap_int_baseILi128ELb0EEppEv", scope: !15, file: !16, line: 895, type: !249, isLocal: false, isDefinition: false, scopeLine: 895, flags: DIFlagPrototyped, isOptimized: false)
!265 = !DISubprogram(name: "operator--", linkageName: "_ZN11ap_int_baseILi128ELb0EEmmEv", scope: !15, file: !16, line: 899, type: !249, isLocal: false, isDefinition: false, scopeLine: 899, flags: DIFlagPrototyped, isOptimized: false)
!266 = !DISubprogram(name: "operator++", linkageName: "_ZN11ap_int_baseILi128ELb0EEppEi", scope: !15, file: !16, line: 907, type: !267, isLocal: false, isDefinition: false, scopeLine: 907, flags: DIFlagPrototyped, isOptimized: false)
!267 = !DISubroutineType(types: !268)
!268 = !{!269, !45, !30}
!269 = !DIDerivedType(tag: DW_TAG_const_type, baseType: !270)
!270 = !DIDerivedType(tag: DW_TAG_typedef, name: "arg1", scope: !271, file: !16, line: 206, baseType: !275)
!271 = distinct !DICompositeType(tag: DW_TAG_structure_type, name: "RType<128, false>", scope: !15, file: !16, line: 173, size: 8, flags: DIFlagTypePassByValue, elements: !4, templateParams: !272, identifier: "_ZTSN11ap_int_baseILi128ELb0EE5RTypeILi128ELb0EEE")
!272 = !{!273, !274}
!273 = !DITemplateValueParameter(name: "_AP_W2", type: !30, value: i32 128)
!274 = !DITemplateValueParameter(name: "_AP_S2", type: !32, value: i8 0)
!275 = !DIDerivedType(tag: DW_TAG_typedef, name: "type", scope: !276, file: !16, line: 144, baseType: !11)
!276 = distinct !DICompositeType(tag: DW_TAG_structure_type, name: "_ap_int_factory<128, false>", file: !16, line: 144, size: 8, flags: DIFlagTypePassByValue, elements: !4, templateParams: !272, identifier: "_ZTS15_ap_int_factoryILi128ELb0EE")
!277 = !DISubprogram(name: "operator--", linkageName: "_ZN11ap_int_baseILi128ELb0EEmmEi", scope: !15, file: !16, line: 912, type: !267, isLocal: false, isDefinition: false, scopeLine: 912, flags: DIFlagPrototyped, isOptimized: false)
!278 = !DISubprogram(name: "operator+", linkageName: "_ZNK11ap_int_baseILi128ELb0EEpsEv", scope: !15, file: !16, line: 921, type: !279, isLocal: false, isDefinition: false, scopeLine: 921, flags: DIFlagPrototyped, isOptimized: false)
!279 = !DISubroutineType(types: !280)
!280 = !{!270, !40}
!281 = !DISubprogram(name: "operator-", linkageName: "_ZNK11ap_int_baseILi128ELb0EEngEv", scope: !15, file: !16, line: 924, type: !282, isLocal: false, isDefinition: false, scopeLine: 924, flags: DIFlagPrototyped, isOptimized: false)
!282 = !DISubroutineType(types: !283)
!283 = !{!284, !40}
!284 = !DIDerivedType(tag: DW_TAG_typedef, name: "minus", scope: !285, file: !16, line: 202, baseType: !288)
!285 = distinct !DICompositeType(tag: DW_TAG_structure_type, name: "RType<1, false>", scope: !15, file: !16, line: 173, size: 8, flags: DIFlagTypePassByValue, elements: !4, templateParams: !286, identifier: "_ZTSN11ap_int_baseILi128ELb0EE5RTypeILi1ELb0EEE")
!286 = !{!287, !274}
!287 = !DITemplateValueParameter(name: "_AP_W2", type: !30, value: i32 1)
!288 = !DIDerivedType(tag: DW_TAG_typedef, name: "type", scope: !289, file: !16, line: 142, baseType: !293)
!289 = distinct !DICompositeType(tag: DW_TAG_structure_type, name: "_ap_int_factory<129, true>", file: !16, line: 142, size: 8, flags: DIFlagTypePassByValue, elements: !4, templateParams: !290, identifier: "_ZTS15_ap_int_factoryILi129ELb1EE")
!290 = !{!291, !292}
!291 = !DITemplateValueParameter(name: "_AP_W2", type: !30, value: i32 129)
!292 = !DITemplateValueParameter(name: "_AP_S2", type: !32, value: i8 1)
!293 = distinct !DICompositeType(tag: DW_TAG_structure_type, name: "ap_int<129>", file: !97, line: 183, flags: DIFlagFwdDecl, identifier: "_ZTS6ap_intILi129EE")
!294 = !DISubprogram(name: "operator!", linkageName: "_ZNK11ap_int_baseILi128ELb0EEntEv", scope: !15, file: !16, line: 931, type: !192, isLocal: false, isDefinition: false, scopeLine: 931, flags: DIFlagPrototyped, isOptimized: false)
!295 = !DISubprogram(name: "operator~", linkageName: "_ZNK11ap_int_baseILi128ELb0EEcoEv", scope: !15, file: !16, line: 937, type: !279, isLocal: false, isDefinition: false, scopeLine: 937, flags: DIFlagPrototyped, isOptimized: false)
!296 = !DISubprogram(name: "range", linkageName: "_ZN11ap_int_baseILi128ELb0EE5rangeEii", scope: !15, file: !16, line: 1075, type: !297, isLocal: false, isDefinition: false, scopeLine: 1075, flags: DIFlagPrototyped, isOptimized: false)
!297 = !DISubroutineType(types: !298)
!298 = !{!299, !45, !30, !30}
!299 = distinct !DICompositeType(tag: DW_TAG_structure_type, name: "ap_range_ref<128, false>", file: !300, line: 336, size: 128, flags: DIFlagTypePassByReference, elements: !301, templateParams: !416, identifier: "_ZTS12ap_range_refILi128ELb0EE")
!300 = !DIFile(filename: "/opt/Xilinx/Vitis_HLS/2021.1/common/technology/autopilot/ap_int_ref.h", directory: "/afs/hep.wisc.edu/home/mbileska/WOMBATv2HLS/duo/testMisc20/vivado_hls_duo")
!301 = !{!302, !305, !306, !307, !313, !317, !322, !326, !329, !333, !336, !339, !342, !345, !348, !351, !354, !357, !360, !363, !366, !369, !372, !375, !378, !381, !385, !386, !387, !388, !389, !390, !393, !394, !397, !400, !403, !406, !407, !410, !411, !412}
!302 = !DIDerivedType(tag: DW_TAG_member, name: "d_bv", scope: !299, file: !300, line: 341, baseType: !303, size: 64)
!303 = !DIDerivedType(tag: DW_TAG_reference_type, baseType: !304, size: 64)
!304 = !DIDerivedType(tag: DW_TAG_typedef, name: "ref_type", scope: !299, file: !300, line: 340, baseType: !15)
!305 = !DIDerivedType(tag: DW_TAG_member, name: "l_index", scope: !299, file: !300, line: 342, baseType: !30, size: 32, offset: 64)
!306 = !DIDerivedType(tag: DW_TAG_member, name: "h_index", scope: !299, file: !300, line: 343, baseType: !30, size: 32, offset: 96)
!307 = !DISubprogram(name: "ap_range_ref", scope: !299, file: !300, line: 346, type: !308, isLocal: false, isDefinition: false, scopeLine: 346, flags: DIFlagPrototyped, isOptimized: false)
!308 = !DISubroutineType(types: !309)
!309 = !{null, !310, !311}
!310 = !DIDerivedType(tag: DW_TAG_pointer_type, baseType: !299, size: 64, flags: DIFlagArtificial | DIFlagObjectPointer)
!311 = !DIDerivedType(tag: DW_TAG_reference_type, baseType: !312, size: 64)
!312 = !DIDerivedType(tag: DW_TAG_const_type, baseType: !299)
!313 = !DISubprogram(name: "ap_range_ref", scope: !299, file: !300, line: 349, type: !314, isLocal: false, isDefinition: false, scopeLine: 349, flags: DIFlagPrototyped, isOptimized: false)
!314 = !DISubroutineType(types: !315)
!315 = !{null, !310, !316, !30, !30}
!316 = !DIDerivedType(tag: DW_TAG_pointer_type, baseType: !304, size: 64)
!317 = !DISubprogram(name: "ap_range_ref", scope: !299, file: !300, line: 352, type: !318, isLocal: false, isDefinition: false, scopeLine: 352, flags: DIFlagPrototyped, isOptimized: false)
!318 = !DISubroutineType(types: !319)
!319 = !{null, !310, !320, !30, !30}
!320 = !DIDerivedType(tag: DW_TAG_pointer_type, baseType: !321, size: 64)
!321 = !DIDerivedType(tag: DW_TAG_const_type, baseType: !304)
!322 = !DISubprogram(name: "operator ap_int_base", linkageName: "_ZNK12ap_range_refILi128ELb0EEcv11ap_int_baseILi128ELb0EEEv", scope: !299, file: !300, line: 355, type: !323, isLocal: false, isDefinition: false, scopeLine: 355, flags: DIFlagPrototyped, isOptimized: false)
!323 = !DISubroutineType(types: !324)
!324 = !{!15, !325}
!325 = !DIDerivedType(tag: DW_TAG_pointer_type, baseType: !312, size: 64, flags: DIFlagArtificial | DIFlagObjectPointer)
!326 = !DISubprogram(name: "operator unsigned long long", linkageName: "_ZNK12ap_range_refILi128ELb0EEcvyEv", scope: !299, file: !300, line: 361, type: !327, isLocal: false, isDefinition: false, scopeLine: 361, flags: DIFlagPrototyped, isOptimized: false)
!327 = !DISubroutineType(types: !328)
!328 = !{!103, !325}
!329 = !DISubprogram(name: "operator=", linkageName: "_ZN12ap_range_refILi128ELb0EEaSEb", scope: !299, file: !300, line: 385, type: !330, isLocal: false, isDefinition: false, scopeLine: 385, flags: DIFlagPrototyped, isOptimized: false)
!330 = !DISubroutineType(types: !331)
!331 = !{!332, !310, !32}
!332 = !DIDerivedType(tag: DW_TAG_reference_type, baseType: !299, size: 64)
!333 = !DISubprogram(name: "operator=", linkageName: "_ZN12ap_range_refILi128ELb0EEaSEc", scope: !299, file: !300, line: 386, type: !334, isLocal: false, isDefinition: false, scopeLine: 386, flags: DIFlagPrototyped, isOptimized: false)
!334 = !DISubroutineType(types: !335)
!335 = !{!332, !310, !53}
!336 = !DISubprogram(name: "operator=", linkageName: "_ZN12ap_range_refILi128ELb0EEaSEa", scope: !299, file: !300, line: 387, type: !337, isLocal: false, isDefinition: false, scopeLine: 387, flags: DIFlagPrototyped, isOptimized: false)
!337 = !DISubroutineType(types: !338)
!338 = !{!332, !310, !58}
!339 = !DISubprogram(name: "operator=", linkageName: "_ZN12ap_range_refILi128ELb0EEaSEh", scope: !299, file: !300, line: 388, type: !340, isLocal: false, isDefinition: false, scopeLine: 388, flags: DIFlagPrototyped, isOptimized: false)
!340 = !DISubroutineType(types: !341)
!341 = !{!332, !310, !63}
!342 = !DISubprogram(name: "operator=", linkageName: "_ZN12ap_range_refILi128ELb0EEaSEs", scope: !299, file: !300, line: 389, type: !343, isLocal: false, isDefinition: false, scopeLine: 389, flags: DIFlagPrototyped, isOptimized: false)
!343 = !DISubroutineType(types: !344)
!344 = !{!332, !310, !68}
!345 = !DISubprogram(name: "operator=", linkageName: "_ZN12ap_range_refILi128ELb0EEaSEt", scope: !299, file: !300, line: 390, type: !346, isLocal: false, isDefinition: false, scopeLine: 390, flags: DIFlagPrototyped, isOptimized: false)
!346 = !DISubroutineType(types: !347)
!347 = !{!332, !310, !73}
!348 = !DISubprogram(name: "operator=", linkageName: "_ZN12ap_range_refILi128ELb0EEaSEi", scope: !299, file: !300, line: 391, type: !349, isLocal: false, isDefinition: false, scopeLine: 391, flags: DIFlagPrototyped, isOptimized: false)
!349 = !DISubroutineType(types: !350)
!350 = !{!332, !310, !30}
!351 = !DISubprogram(name: "operator=", linkageName: "_ZN12ap_range_refILi128ELb0EEaSEj", scope: !299, file: !300, line: 392, type: !352, isLocal: false, isDefinition: false, scopeLine: 392, flags: DIFlagPrototyped, isOptimized: false)
!352 = !DISubroutineType(types: !353)
!353 = !{!332, !310, !81}
!354 = !DISubprogram(name: "operator=", linkageName: "_ZN12ap_range_refILi128ELb0EEaSEl", scope: !299, file: !300, line: 393, type: !355, isLocal: false, isDefinition: false, scopeLine: 393, flags: DIFlagPrototyped, isOptimized: false)
!355 = !DISubroutineType(types: !356)
!356 = !{!332, !310, !86}
!357 = !DISubprogram(name: "operator=", linkageName: "_ZN12ap_range_refILi128ELb0EEaSEm", scope: !299, file: !300, line: 394, type: !358, isLocal: false, isDefinition: false, scopeLine: 394, flags: DIFlagPrototyped, isOptimized: false)
!358 = !DISubroutineType(types: !359)
!359 = !{!332, !310, !91}
!360 = !DISubprogram(name: "operator=", linkageName: "_ZN12ap_range_refILi128ELb0EEaSEx", scope: !299, file: !300, line: 395, type: !361, isLocal: false, isDefinition: false, scopeLine: 395, flags: DIFlagPrototyped, isOptimized: false)
!361 = !DISubroutineType(types: !362)
!362 = !{!332, !310, !96}
!363 = !DISubprogram(name: "operator=", linkageName: "_ZN12ap_range_refILi128ELb0EEaSEy", scope: !299, file: !300, line: 396, type: !364, isLocal: false, isDefinition: false, scopeLine: 396, flags: DIFlagPrototyped, isOptimized: false)
!364 = !DISubroutineType(types: !365)
!365 = !{!332, !310, !103}
!366 = !DISubprogram(name: "operator=", linkageName: "_ZN12ap_range_refILi128ELb0EEaSEDh", scope: !299, file: !300, line: 397, type: !367, isLocal: false, isDefinition: false, scopeLine: 397, flags: DIFlagPrototyped, isOptimized: false)
!367 = !DISubroutineType(types: !368)
!368 = !{!332, !310, !108}
!369 = !DISubprogram(name: "operator=", linkageName: "_ZN12ap_range_refILi128ELb0EEaSEf", scope: !299, file: !300, line: 398, type: !370, isLocal: false, isDefinition: false, scopeLine: 398, flags: DIFlagPrototyped, isOptimized: false)
!370 = !DISubroutineType(types: !371)
!371 = !{!332, !310, !113}
!372 = !DISubprogram(name: "operator=", linkageName: "_ZN12ap_range_refILi128ELb0EEaSEd", scope: !299, file: !300, line: 399, type: !373, isLocal: false, isDefinition: false, scopeLine: 399, flags: DIFlagPrototyped, isOptimized: false)
!373 = !DISubroutineType(types: !374)
!374 = !{!332, !310, !117}
!375 = !DISubprogram(name: "operator=", linkageName: "_ZN12ap_range_refILi128ELb0EEaSEPKc", scope: !299, file: !300, line: 404, type: !376, isLocal: false, isDefinition: false, scopeLine: 404, flags: DIFlagPrototyped, isOptimized: false)
!376 = !DISubroutineType(types: !377)
!377 = !{!332, !310, !121}
!378 = !DISubprogram(name: "operator=", linkageName: "_ZN12ap_range_refILi128ELb0EEaSERKS0_", scope: !299, file: !300, line: 421, type: !379, isLocal: false, isDefinition: false, scopeLine: 421, flags: DIFlagPrototyped, isOptimized: false)
!379 = !DISubroutineType(types: !380)
!380 = !{!332, !310, !311}
!381 = !DISubprogram(name: "operator,", linkageName: "_ZN12ap_range_refILi128ELb0EEcmER11ap_int_baseILi128ELb0EE", scope: !299, file: !300, line: 489, type: !382, isLocal: false, isDefinition: false, scopeLine: 489, flags: DIFlagPrototyped, isOptimized: false)
!382 = !DISubroutineType(types: !383)
!383 = !{!384, !310, !143}
!384 = distinct !DICompositeType(tag: DW_TAG_structure_type, name: "ap_concat_ref<128, ap_range_ref<128, false>, 128, ap_int_base<128, false> >", file: !300, line: 74, flags: DIFlagFwdDecl, identifier: "_ZTS13ap_concat_refILi128E12ap_range_refILi128ELb0EELi128E11ap_int_baseILi128ELb0EEE")
!385 = !DISubprogram(name: "operator~", linkageName: "_ZNK12ap_range_refILi128ELb0EEcoEv", scope: !299, file: !300, line: 647, type: !323, isLocal: false, isDefinition: false, scopeLine: 647, flags: DIFlagPrototyped, isOptimized: false)
!386 = !DISubprogram(name: "operator!", linkageName: "_ZNK12ap_range_refILi128ELb0EEntEv", scope: !299, file: !300, line: 653, type: !323, isLocal: false, isDefinition: false, scopeLine: 653, flags: DIFlagPrototyped, isOptimized: false)
!387 = !DISubprogram(name: "operator+", linkageName: "_ZNK12ap_range_refILi128ELb0EEpsEv", scope: !299, file: !300, line: 659, type: !323, isLocal: false, isDefinition: false, scopeLine: 659, flags: DIFlagPrototyped, isOptimized: false)
!388 = !DISubprogram(name: "operator-", linkageName: "_ZNK12ap_range_refILi128ELb0EEngEv", scope: !299, file: !300, line: 665, type: !323, isLocal: false, isDefinition: false, scopeLine: 665, flags: DIFlagPrototyped, isOptimized: false)
!389 = !DISubprogram(name: "get", linkageName: "_ZNK12ap_range_refILi128ELb0EE3getEv", scope: !299, file: !300, line: 672, type: !323, isLocal: false, isDefinition: false, scopeLine: 672, flags: DIFlagPrototyped, isOptimized: false)
!390 = !DISubprogram(name: "length", linkageName: "_ZNK12ap_range_refILi128ELb0EE6lengthEv", scope: !299, file: !300, line: 683, type: !391, isLocal: false, isDefinition: false, scopeLine: 683, flags: DIFlagPrototyped, isOptimized: false)
!391 = !DISubroutineType(types: !392)
!392 = !{!30, !325}
!393 = !DISubprogram(name: "to_int", linkageName: "_ZNK12ap_range_refILi128ELb0EE6to_intEv", scope: !299, file: !300, line: 687, type: !391, isLocal: false, isDefinition: false, scopeLine: 687, flags: DIFlagPrototyped, isOptimized: false)
!394 = !DISubprogram(name: "to_uint", linkageName: "_ZNK12ap_range_refILi128ELb0EE7to_uintEv", scope: !299, file: !300, line: 691, type: !395, isLocal: false, isDefinition: false, scopeLine: 691, flags: DIFlagPrototyped, isOptimized: false)
!395 = !DISubroutineType(types: !396)
!396 = !{!81, !325}
!397 = !DISubprogram(name: "to_long", linkageName: "_ZNK12ap_range_refILi128ELb0EE7to_longEv", scope: !299, file: !300, line: 695, type: !398, isLocal: false, isDefinition: false, scopeLine: 695, flags: DIFlagPrototyped, isOptimized: false)
!398 = !DISubroutineType(types: !399)
!399 = !{!86, !325}
!400 = !DISubprogram(name: "to_ulong", linkageName: "_ZNK12ap_range_refILi128ELb0EE8to_ulongEv", scope: !299, file: !300, line: 699, type: !401, isLocal: false, isDefinition: false, scopeLine: 699, flags: DIFlagPrototyped, isOptimized: false)
!401 = !DISubroutineType(types: !402)
!402 = !{!91, !325}
!403 = !DISubprogram(name: "to_int64", linkageName: "_ZNK12ap_range_refILi128ELb0EE8to_int64Ev", scope: !299, file: !300, line: 703, type: !404, isLocal: false, isDefinition: false, scopeLine: 703, flags: DIFlagPrototyped, isOptimized: false)
!404 = !DISubroutineType(types: !405)
!405 = !{!96, !325}
!406 = !DISubprogram(name: "to_uint64", linkageName: "_ZNK12ap_range_refILi128ELb0EE9to_uint64Ev", scope: !299, file: !300, line: 707, type: !327, isLocal: false, isDefinition: false, scopeLine: 707, flags: DIFlagPrototyped, isOptimized: false)
!407 = !DISubprogram(name: "and_reduce", linkageName: "_ZNK12ap_range_refILi128ELb0EE10and_reduceEv", scope: !299, file: !300, line: 711, type: !408, isLocal: false, isDefinition: false, scopeLine: 711, flags: DIFlagPrototyped, isOptimized: false)
!408 = !DISubroutineType(types: !409)
!409 = !{!32, !325}
!410 = !DISubprogram(name: "or_reduce", linkageName: "_ZNK12ap_range_refILi128ELb0EE9or_reduceEv", scope: !299, file: !300, line: 725, type: !408, isLocal: false, isDefinition: false, scopeLine: 725, flags: DIFlagPrototyped, isOptimized: false)
!411 = !DISubprogram(name: "xor_reduce", linkageName: "_ZNK12ap_range_refILi128ELb0EE10xor_reduceEv", scope: !299, file: !300, line: 739, type: !408, isLocal: false, isDefinition: false, scopeLine: 739, flags: DIFlagPrototyped, isOptimized: false)
!412 = !DISubprogram(name: "to_string", linkageName: "_ZNK12ap_range_refILi128ELb0EE9to_stringEa", scope: !299, file: !300, line: 760, type: !413, isLocal: false, isDefinition: false, scopeLine: 760, flags: DIFlagPrototyped, isOptimized: false)
!413 = !DISubroutineType(types: !414)
!414 = !{!415, !325, !58}
!415 = !DIDerivedType(tag: DW_TAG_pointer_type, baseType: !53, size: 64)
!416 = !{!417, !31}
!417 = !DITemplateValueParameter(name: "_AP_W", type: !30, value: i32 128)
!418 = !DISubprogram(name: "range", linkageName: "_ZNK11ap_int_baseILi128ELb0EE5rangeEii", scope: !15, file: !16, line: 1082, type: !419, isLocal: false, isDefinition: false, scopeLine: 1082, flags: DIFlagPrototyped, isOptimized: false)
!419 = !DISubroutineType(types: !420)
!420 = !{!299, !40, !30, !30}
!421 = !DISubprogram(name: "range", linkageName: "_ZN11ap_int_baseILi128ELb0EE5rangeEv", scope: !15, file: !16, line: 1106, type: !422, isLocal: false, isDefinition: false, scopeLine: 1106, flags: DIFlagPrototyped, isOptimized: false)
!422 = !DISubroutineType(types: !423)
!423 = !{!299, !45}
!424 = !DISubprogram(name: "range", linkageName: "_ZNK11ap_int_baseILi128ELb0EE5rangeEv", scope: !15, file: !16, line: 1110, type: !425, isLocal: false, isDefinition: false, scopeLine: 1110, flags: DIFlagPrototyped, isOptimized: false)
!425 = !DISubroutineType(types: !426)
!426 = !{!299, !40}
!427 = !DISubprogram(name: "operator()", linkageName: "_ZN11ap_int_baseILi128ELb0EEclEii", scope: !15, file: !16, line: 1114, type: !297, isLocal: false, isDefinition: false, scopeLine: 1114, flags: DIFlagPrototyped, isOptimized: false)
!428 = !DISubprogram(name: "operator()", linkageName: "_ZNK11ap_int_baseILi128ELb0EEclEii", scope: !15, file: !16, line: 1118, type: !419, isLocal: false, isDefinition: false, scopeLine: 1118, flags: DIFlagPrototyped, isOptimized: false)
!429 = !DISubprogram(name: "operator[]", linkageName: "_ZN11ap_int_baseILi128ELb0EEixEi", scope: !15, file: !16, line: 1156, type: !430, isLocal: false, isDefinition: false, scopeLine: 1156, flags: DIFlagPrototyped, isOptimized: false)
!430 = !DISubroutineType(types: !431)
!431 = !{!432, !45, !30}
!432 = distinct !DICompositeType(tag: DW_TAG_structure_type, name: "ap_bit_ref<128, false>", file: !97, line: 192, flags: DIFlagFwdDecl, identifier: "_ZTS10ap_bit_refILi128ELb0EE")
!433 = !DISubprogram(name: "operator[]", linkageName: "_ZNK11ap_int_baseILi128ELb0EEixEi", scope: !15, file: !16, line: 1172, type: !246, isLocal: false, isDefinition: false, scopeLine: 1172, flags: DIFlagPrototyped, isOptimized: false)
!434 = !DISubprogram(name: "bit", linkageName: "_ZN11ap_int_baseILi128ELb0EE3bitEi", scope: !15, file: !16, line: 1185, type: !430, isLocal: false, isDefinition: false, scopeLine: 1185, flags: DIFlagPrototyped, isOptimized: false)
!435 = !DISubprogram(name: "bit", linkageName: "_ZNK11ap_int_baseILi128ELb0EE3bitEi", scope: !15, file: !16, line: 1200, type: !246, isLocal: false, isDefinition: false, scopeLine: 1200, flags: DIFlagPrototyped, isOptimized: false)
!436 = !DISubprogram(name: "countLeadingZeros", linkageName: "_ZNK11ap_int_baseILi128ELb0EE17countLeadingZerosEv", scope: !15, file: !16, line: 1223, type: !38, isLocal: false, isDefinition: false, scopeLine: 1223, flags: DIFlagPrototyped, isOptimized: false)
!437 = !DISubprogram(name: "and_reduce", linkageName: "_ZNK11ap_int_baseILi128ELb0EE10and_reduceEv", scope: !15, file: !16, line: 1443, type: !192, isLocal: false, isDefinition: false, scopeLine: 1443, flags: DIFlagPrototyped, isOptimized: false)
!438 = !DISubprogram(name: "nand_reduce", linkageName: "_ZNK11ap_int_baseILi128ELb0EE11nand_reduceEv", scope: !15, file: !16, line: 1444, type: !192, isLocal: false, isDefinition: false, scopeLine: 1444, flags: DIFlagPrototyped, isOptimized: false)
!439 = !DISubprogram(name: "or_reduce", linkageName: "_ZNK11ap_int_baseILi128ELb0EE9or_reduceEv", scope: !15, file: !16, line: 1445, type: !192, isLocal: false, isDefinition: false, scopeLine: 1445, flags: DIFlagPrototyped, isOptimized: false)
!440 = !DISubprogram(name: "nor_reduce", linkageName: "_ZNK11ap_int_baseILi128ELb0EE10nor_reduceEv", scope: !15, file: !16, line: 1446, type: !192, isLocal: false, isDefinition: false, scopeLine: 1446, flags: DIFlagPrototyped, isOptimized: false)
!441 = !DISubprogram(name: "xor_reduce", linkageName: "_ZNK11ap_int_baseILi128ELb0EE10xor_reduceEv", scope: !15, file: !16, line: 1447, type: !192, isLocal: false, isDefinition: false, scopeLine: 1447, flags: DIFlagPrototyped, isOptimized: false)
!442 = !DISubprogram(name: "xnor_reduce", linkageName: "_ZNK11ap_int_baseILi128ELb0EE11xnor_reduceEv", scope: !15, file: !16, line: 1448, type: !192, isLocal: false, isDefinition: false, scopeLine: 1448, flags: DIFlagPrototyped, isOptimized: false)
!443 = !DISubprogram(name: "to_string", linkageName: "_ZNK11ap_int_baseILi128ELb0EE9to_stringEab", scope: !15, file: !16, line: 1463, type: !444, isLocal: false, isDefinition: false, scopeLine: 1463, flags: DIFlagPrototyped, isOptimized: false)
!444 = !DISubroutineType(types: !445)
!445 = !{!415, !40, !58, !32}
!446 = !DISubprogram(name: "ap_uint", scope: !11, file: !12, line: 213, type: !447, isLocal: false, isDefinition: false, scopeLine: 213, flags: DIFlagPrototyped, isOptimized: false)
!447 = !DISubroutineType(types: !448)
!448 = !{null, !449}
!449 = !DIDerivedType(tag: DW_TAG_pointer_type, baseType: !11, size: 64, flags: DIFlagArtificial | DIFlagObjectPointer)
!450 = !DISubprogram(name: "ap_uint", scope: !11, file: !12, line: 241, type: !451, isLocal: false, isDefinition: false, scopeLine: 241, flags: DIFlagPrototyped, isOptimized: false)
!451 = !DISubroutineType(types: !452)
!452 = !{null, !449, !23, !32}
!453 = !DISubprogram(name: "ap_uint", scope: !11, file: !12, line: 309, type: !454, isLocal: false, isDefinition: false, scopeLine: 309, flags: DIFlagPrototyped, isOptimized: false)
!454 = !DISubroutineType(types: !455)
!455 = !{null, !449, !32}
!456 = !DISubprogram(name: "ap_uint", scope: !11, file: !12, line: 310, type: !457, isLocal: false, isDefinition: false, scopeLine: 310, flags: DIFlagPrototyped, isOptimized: false)
!457 = !DISubroutineType(types: !458)
!458 = !{null, !449, !53}
!459 = !DISubprogram(name: "ap_uint", scope: !11, file: !12, line: 311, type: !460, isLocal: false, isDefinition: false, scopeLine: 311, flags: DIFlagPrototyped, isOptimized: false)
!460 = !DISubroutineType(types: !461)
!461 = !{null, !449, !58}
!462 = !DISubprogram(name: "ap_uint", scope: !11, file: !12, line: 312, type: !463, isLocal: false, isDefinition: false, scopeLine: 312, flags: DIFlagPrototyped, isOptimized: false)
!463 = !DISubroutineType(types: !464)
!464 = !{null, !449, !63}
!465 = !DISubprogram(name: "ap_uint", scope: !11, file: !12, line: 313, type: !466, isLocal: false, isDefinition: false, scopeLine: 313, flags: DIFlagPrototyped, isOptimized: false)
!466 = !DISubroutineType(types: !467)
!467 = !{null, !449, !68}
!468 = !DISubprogram(name: "ap_uint", scope: !11, file: !12, line: 314, type: !469, isLocal: false, isDefinition: false, scopeLine: 314, flags: DIFlagPrototyped, isOptimized: false)
!469 = !DISubroutineType(types: !470)
!470 = !{null, !449, !73}
!471 = !DISubprogram(name: "ap_uint", scope: !11, file: !12, line: 315, type: !472, isLocal: false, isDefinition: false, scopeLine: 315, flags: DIFlagPrototyped, isOptimized: false)
!472 = !DISubroutineType(types: !473)
!473 = !{null, !449, !30}
!474 = !DISubprogram(name: "ap_uint", scope: !11, file: !12, line: 316, type: !475, isLocal: false, isDefinition: false, scopeLine: 316, flags: DIFlagPrototyped, isOptimized: false)
!475 = !DISubroutineType(types: !476)
!476 = !{null, !449, !81}
!477 = !DISubprogram(name: "ap_uint", scope: !11, file: !12, line: 317, type: !478, isLocal: false, isDefinition: false, scopeLine: 317, flags: DIFlagPrototyped, isOptimized: false)
!478 = !DISubroutineType(types: !479)
!479 = !{null, !449, !86}
!480 = !DISubprogram(name: "ap_uint", scope: !11, file: !12, line: 318, type: !481, isLocal: false, isDefinition: false, scopeLine: 318, flags: DIFlagPrototyped, isOptimized: false)
!481 = !DISubroutineType(types: !482)
!482 = !{null, !449, !91}
!483 = !DISubprogram(name: "ap_uint", scope: !11, file: !12, line: 319, type: !484, isLocal: false, isDefinition: false, scopeLine: 319, flags: DIFlagPrototyped, isOptimized: false)
!484 = !DISubroutineType(types: !485)
!485 = !{null, !449, !96}
!486 = !DISubprogram(name: "ap_uint", scope: !11, file: !12, line: 320, type: !487, isLocal: false, isDefinition: false, scopeLine: 320, flags: DIFlagPrototyped, isOptimized: false)
!487 = !DISubroutineType(types: !488)
!488 = !{null, !449, !103}
!489 = !DISubprogram(name: "ap_uint", scope: !11, file: !12, line: 322, type: !490, isLocal: false, isDefinition: false, scopeLine: 322, flags: DIFlagPrototyped, isOptimized: false)
!490 = !DISubroutineType(types: !491)
!491 = !{null, !449, !117}
!492 = !DISubprogram(name: "ap_uint", scope: !11, file: !12, line: 323, type: !493, isLocal: false, isDefinition: false, scopeLine: 323, flags: DIFlagPrototyped, isOptimized: false)
!493 = !DISubroutineType(types: !494)
!494 = !{null, !449, !113}
!495 = !DISubprogram(name: "ap_uint", scope: !11, file: !12, line: 324, type: !496, isLocal: false, isDefinition: false, scopeLine: 324, flags: DIFlagPrototyped, isOptimized: false)
!496 = !DISubroutineType(types: !497)
!497 = !{null, !449, !108}
!498 = !DISubprogram(name: "ap_uint", scope: !11, file: !12, line: 327, type: !499, isLocal: false, isDefinition: false, scopeLine: 327, flags: DIFlagPrototyped, isOptimized: false)
!499 = !DISubroutineType(types: !500)
!500 = !{null, !449, !121}
!501 = !DISubprogram(name: "ap_uint", scope: !11, file: !12, line: 329, type: !502, isLocal: false, isDefinition: false, scopeLine: 329, flags: DIFlagPrototyped, isOptimized: false)
!502 = !DISubroutineType(types: !503)
!503 = !{null, !449, !121, !58}
!504 = !DISubprogram(name: "operator=", linkageName: "_ZN7ap_uintILi128EEaSERKS0_", scope: !11, file: !12, line: 334, type: !505, isLocal: false, isDefinition: false, scopeLine: 334, flags: DIFlagPrototyped, isOptimized: false)
!505 = !DISubroutineType(types: !506)
!506 = !{!507, !449, !508}
!507 = !DIDerivedType(tag: DW_TAG_reference_type, baseType: !11, size: 64)
!508 = !DIDerivedType(tag: DW_TAG_reference_type, baseType: !509, size: 64)
!509 = !DIDerivedType(tag: DW_TAG_const_type, baseType: !11)
!510 = !DISubprogram(name: "operator=", linkageName: "_ZN7ap_uintILi128EEaSERVKS0_", scope: !11, file: !12, line: 337, type: !511, isLocal: false, isDefinition: false, scopeLine: 337, flags: DIFlagPrototyped, isOptimized: false)
!511 = !DISubroutineType(types: !512)
!512 = !{!507, !449, !513}
!513 = !DIDerivedType(tag: DW_TAG_reference_type, baseType: !514, size: 64)
!514 = !DIDerivedType(tag: DW_TAG_const_type, baseType: !515)
!515 = !DIDerivedType(tag: DW_TAG_volatile_type, baseType: !11)
!516 = !DISubprogram(name: "operator=", linkageName: "_ZNV7ap_uintILi128EEaSERKS0_", scope: !11, file: !12, line: 343, type: !517, isLocal: false, isDefinition: false, scopeLine: 343, flags: DIFlagPrototyped, isOptimized: false)
!517 = !DISubroutineType(types: !518)
!518 = !{null, !519, !508}
!519 = !DIDerivedType(tag: DW_TAG_pointer_type, baseType: !515, size: 64, flags: DIFlagArtificial | DIFlagObjectPointer)
!520 = !DISubprogram(name: "operator=", linkageName: "_ZNV7ap_uintILi128EEaSERVKS0_", scope: !11, file: !12, line: 347, type: !521, isLocal: false, isDefinition: false, scopeLine: 347, flags: DIFlagPrototyped, isOptimized: false)
!521 = !DISubroutineType(types: !522)
!522 = !{null, !519, !513}
!523 = !{!417}
!524 = !DIDerivedType(tag: DW_TAG_pointer_type, baseType: !525, size: 64)
!525 = distinct !DICompositeType(tag: DW_TAG_structure_type, name: "ap_uint<192>", file: !12, line: 210, size: 256, flags: DIFlagTypePassByValue, elements: !526, templateParams: !995, identifier: "_ZTS7ap_uintILi192EE")
!526 = !{!527, !918, !922, !925, !928, !931, !934, !937, !940, !943, !946, !949, !952, !955, !958, !961, !964, !967, !970, !973, !976, !982, !988, !992}
!527 = !DIDerivedType(tag: DW_TAG_inheritance, scope: !525, baseType: !528)
!528 = distinct !DICompositeType(tag: DW_TAG_structure_type, name: "ap_int_base<192, false>", file: !16, line: 147, size: 256, flags: DIFlagTypePassByValue, elements: !529, templateParams: !888, identifier: "_ZTS11ap_int_baseILi192ELb0EE")
!529 = !{!530, !541, !542, !543, !548, !552, !555, !558, !561, !564, !567, !570, !573, !576, !579, !582, !585, !588, !591, !594, !597, !600, !603, !608, !612, !617, !618, !622, !625, !628, !631, !634, !637, !640, !643, !646, !649, !652, !655, !658, !661, !669, !672, !675, !678, !681, !684, !687, !688, !691, !694, !697, !700, !703, !706, !709, !712, !716, !717, !718, !719, !722, !723, !726, !729, !730, !733, !734, !735, !736, !737, !738, !739, !742, !743, !744, !754, !755, !758, !768, !769, !770, !890, !893, !896, !899, !900, !901, !905, !906, !907, !908, !909, !910, !911, !912, !913, !914, !915}
!530 = !DIDerivedType(tag: DW_TAG_inheritance, scope: !528, baseType: !531)
!531 = distinct !DICompositeType(tag: DW_TAG_structure_type, name: "ssdm_int<192, false>", file: !20, line: 518, size: 256, flags: DIFlagTypePassByValue, elements: !532, templateParams: !539, identifier: "_ZTS8ssdm_intILi192ELb0EE")
!532 = !{!533, !535}
!533 = !DIDerivedType(tag: DW_TAG_member, name: "V", scope: !531, file: !20, line: 519, baseType: !534, size: 192, align: 256)
!534 = !DIBasicType(name: "uint192", size: 192, encoding: DW_ATE_unsigned)
!535 = !DISubprogram(name: "ssdm_int", scope: !531, file: !20, line: 520, type: !536, isLocal: false, isDefinition: false, scopeLine: 520, flags: DIFlagPrototyped, isOptimized: false)
!536 = !DISubroutineType(types: !537)
!537 = !{null, !538}
!538 = !DIDerivedType(tag: DW_TAG_pointer_type, baseType: !531, size: 64, flags: DIFlagArtificial | DIFlagObjectPointer)
!539 = !{!540, !31}
!540 = !DITemplateValueParameter(name: "_AP_N", type: !30, value: i32 192)
!541 = !DIDerivedType(tag: DW_TAG_member, name: "width", scope: !528, file: !16, line: 169, baseType: !34, flags: DIFlagStaticMember, extraData: i32 192)
!542 = !DIDerivedType(tag: DW_TAG_member, name: "sign_flag", scope: !528, file: !16, line: 170, baseType: !36, flags: DIFlagStaticMember, extraData: i1 false)
!543 = !DISubprogram(name: "countLeadingOnes", linkageName: "_ZNK11ap_int_baseILi192ELb0EE16countLeadingOnesEv", scope: !528, file: !16, line: 149, type: !544, isLocal: false, isDefinition: false, scopeLine: 149, flags: DIFlagPrivate | DIFlagPrototyped, isOptimized: false)
!544 = !DISubroutineType(types: !545)
!545 = !{!30, !546}
!546 = !DIDerivedType(tag: DW_TAG_pointer_type, baseType: !547, size: 64, flags: DIFlagArtificial | DIFlagObjectPointer)
!547 = !DIDerivedType(tag: DW_TAG_const_type, baseType: !528)
!548 = !DISubprogram(name: "ap_int_base", scope: !528, file: !16, line: 214, type: !549, isLocal: false, isDefinition: false, scopeLine: 214, flags: DIFlagPrototyped, isOptimized: false)
!549 = !DISubroutineType(types: !550)
!550 = !{null, !551}
!551 = !DIDerivedType(tag: DW_TAG_pointer_type, baseType: !528, size: 64, flags: DIFlagArtificial | DIFlagObjectPointer)
!552 = !DISubprogram(name: "ap_int_base", scope: !528, file: !16, line: 247, type: !553, isLocal: false, isDefinition: false, scopeLine: 247, flags: DIFlagPrototyped, isOptimized: false)
!553 = !DISubroutineType(types: !554)
!554 = !{null, !551, !36}
!555 = !DISubprogram(name: "ap_int_base", scope: !528, file: !16, line: 248, type: !556, isLocal: false, isDefinition: false, scopeLine: 248, flags: DIFlagPrototyped, isOptimized: false)
!556 = !DISubroutineType(types: !557)
!557 = !{null, !551, !52}
!558 = !DISubprogram(name: "ap_int_base", scope: !528, file: !16, line: 249, type: !559, isLocal: false, isDefinition: false, scopeLine: 249, flags: DIFlagPrototyped, isOptimized: false)
!559 = !DISubroutineType(types: !560)
!560 = !{null, !551, !57}
!561 = !DISubprogram(name: "ap_int_base", scope: !528, file: !16, line: 250, type: !562, isLocal: false, isDefinition: false, scopeLine: 250, flags: DIFlagPrototyped, isOptimized: false)
!562 = !DISubroutineType(types: !563)
!563 = !{null, !551, !62}
!564 = !DISubprogram(name: "ap_int_base", scope: !528, file: !16, line: 251, type: !565, isLocal: false, isDefinition: false, scopeLine: 251, flags: DIFlagPrototyped, isOptimized: false)
!565 = !DISubroutineType(types: !566)
!566 = !{null, !551, !67}
!567 = !DISubprogram(name: "ap_int_base", scope: !528, file: !16, line: 252, type: !568, isLocal: false, isDefinition: false, scopeLine: 252, flags: DIFlagPrototyped, isOptimized: false)
!568 = !DISubroutineType(types: !569)
!569 = !{null, !551, !72}
!570 = !DISubprogram(name: "ap_int_base", scope: !528, file: !16, line: 253, type: !571, isLocal: false, isDefinition: false, scopeLine: 253, flags: DIFlagPrototyped, isOptimized: false)
!571 = !DISubroutineType(types: !572)
!572 = !{null, !551, !34}
!573 = !DISubprogram(name: "ap_int_base", scope: !528, file: !16, line: 254, type: !574, isLocal: false, isDefinition: false, scopeLine: 254, flags: DIFlagPrototyped, isOptimized: false)
!574 = !DISubroutineType(types: !575)
!575 = !{null, !551, !80}
!576 = !DISubprogram(name: "ap_int_base", scope: !528, file: !16, line: 255, type: !577, isLocal: false, isDefinition: false, scopeLine: 255, flags: DIFlagPrototyped, isOptimized: false)
!577 = !DISubroutineType(types: !578)
!578 = !{null, !551, !85}
!579 = !DISubprogram(name: "ap_int_base", scope: !528, file: !16, line: 256, type: !580, isLocal: false, isDefinition: false, scopeLine: 256, flags: DIFlagPrototyped, isOptimized: false)
!580 = !DISubroutineType(types: !581)
!581 = !{null, !551, !90}
!582 = !DISubprogram(name: "ap_int_base", scope: !528, file: !16, line: 257, type: !583, isLocal: false, isDefinition: false, scopeLine: 257, flags: DIFlagPrototyped, isOptimized: false)
!583 = !DISubroutineType(types: !584)
!584 = !{null, !551, !95}
!585 = !DISubprogram(name: "ap_int_base", scope: !528, file: !16, line: 258, type: !586, isLocal: false, isDefinition: false, scopeLine: 258, flags: DIFlagPrototyped, isOptimized: false)
!586 = !DISubroutineType(types: !587)
!587 = !{null, !551, !102}
!588 = !DISubprogram(name: "ap_int_base", scope: !528, file: !16, line: 263, type: !589, isLocal: false, isDefinition: false, scopeLine: 263, flags: DIFlagPrototyped, isOptimized: false)
!589 = !DISubroutineType(types: !590)
!590 = !{null, !551, !108}
!591 = !DISubprogram(name: "ap_int_base", scope: !528, file: !16, line: 269, type: !592, isLocal: false, isDefinition: false, scopeLine: 269, flags: DIFlagPrototyped, isOptimized: false)
!592 = !DISubroutineType(types: !593)
!593 = !{null, !551, !113}
!594 = !DISubprogram(name: "ap_int_base", scope: !528, file: !16, line: 328, type: !595, isLocal: false, isDefinition: false, scopeLine: 328, flags: DIFlagPrototyped, isOptimized: false)
!595 = !DISubroutineType(types: !596)
!596 = !{null, !551, !117}
!597 = !DISubprogram(name: "ap_int_base", scope: !528, file: !16, line: 424, type: !598, isLocal: false, isDefinition: false, scopeLine: 424, flags: DIFlagPrototyped, isOptimized: false)
!598 = !DISubroutineType(types: !599)
!599 = !{null, !551, !121}
!600 = !DISubprogram(name: "ap_int_base", scope: !528, file: !16, line: 430, type: !601, isLocal: false, isDefinition: false, scopeLine: 430, flags: DIFlagPrototyped, isOptimized: false)
!601 = !DISubroutineType(types: !602)
!602 = !{null, !551, !121, !58}
!603 = !DISubprogram(name: "read", linkageName: "_ZNV11ap_int_baseILi192ELb0EE4readEv", scope: !528, file: !16, line: 452, type: !604, isLocal: false, isDefinition: false, scopeLine: 452, flags: DIFlagPrototyped, isOptimized: false)
!604 = !DISubroutineType(types: !605)
!605 = !{!528, !606}
!606 = !DIDerivedType(tag: DW_TAG_pointer_type, baseType: !607, size: 64, flags: DIFlagArtificial | DIFlagObjectPointer)
!607 = !DIDerivedType(tag: DW_TAG_volatile_type, baseType: !528)
!608 = !DISubprogram(name: "write", linkageName: "_ZNV11ap_int_baseILi192ELb0EE5writeERKS0_", scope: !528, file: !16, line: 459, type: !609, isLocal: false, isDefinition: false, scopeLine: 459, flags: DIFlagPrototyped, isOptimized: false)
!609 = !DISubroutineType(types: !610)
!610 = !{null, !606, !611}
!611 = !DIDerivedType(tag: DW_TAG_reference_type, baseType: !547, size: 64)
!612 = !DISubprogram(name: "operator=", linkageName: "_ZNV11ap_int_baseILi192ELb0EEaSERVKS0_", scope: !528, file: !16, line: 471, type: !613, isLocal: false, isDefinition: false, scopeLine: 471, flags: DIFlagPrototyped, isOptimized: false)
!613 = !DISubroutineType(types: !614)
!614 = !{null, !606, !615}
!615 = !DIDerivedType(tag: DW_TAG_reference_type, baseType: !616, size: 64)
!616 = !DIDerivedType(tag: DW_TAG_const_type, baseType: !607)
!617 = !DISubprogram(name: "operator=", linkageName: "_ZNV11ap_int_baseILi192ELb0EEaSERKS0_", scope: !528, file: !16, line: 481, type: !609, isLocal: false, isDefinition: false, scopeLine: 481, flags: DIFlagPrototyped, isOptimized: false)
!618 = !DISubprogram(name: "operator=", linkageName: "_ZN11ap_int_baseILi192ELb0EEaSERVKS0_", scope: !528, file: !16, line: 498, type: !619, isLocal: false, isDefinition: false, scopeLine: 498, flags: DIFlagPrototyped, isOptimized: false)
!619 = !DISubroutineType(types: !620)
!620 = !{!621, !551, !615}
!621 = !DIDerivedType(tag: DW_TAG_reference_type, baseType: !528, size: 64)
!622 = !DISubprogram(name: "operator=", linkageName: "_ZN11ap_int_baseILi192ELb0EEaSERKS0_", scope: !528, file: !16, line: 503, type: !623, isLocal: false, isDefinition: false, scopeLine: 503, flags: DIFlagPrototyped, isOptimized: false)
!623 = !DISubroutineType(types: !624)
!624 = !{!621, !551, !611}
!625 = !DISubprogram(name: "operator=", linkageName: "_ZN11ap_int_baseILi192ELb0EEaSEb", scope: !528, file: !16, line: 511, type: !626, isLocal: false, isDefinition: false, scopeLine: 511, flags: DIFlagPrototyped, isOptimized: false)
!626 = !DISubroutineType(types: !627)
!627 = !{!621, !551, !32}
!628 = !DISubprogram(name: "operator=", linkageName: "_ZN11ap_int_baseILi192ELb0EEaSEc", scope: !528, file: !16, line: 512, type: !629, isLocal: false, isDefinition: false, scopeLine: 512, flags: DIFlagPrototyped, isOptimized: false)
!629 = !DISubroutineType(types: !630)
!630 = !{!621, !551, !53}
!631 = !DISubprogram(name: "operator=", linkageName: "_ZN11ap_int_baseILi192ELb0EEaSEa", scope: !528, file: !16, line: 513, type: !632, isLocal: false, isDefinition: false, scopeLine: 513, flags: DIFlagPrototyped, isOptimized: false)
!632 = !DISubroutineType(types: !633)
!633 = !{!621, !551, !58}
!634 = !DISubprogram(name: "operator=", linkageName: "_ZN11ap_int_baseILi192ELb0EEaSEh", scope: !528, file: !16, line: 514, type: !635, isLocal: false, isDefinition: false, scopeLine: 514, flags: DIFlagPrototyped, isOptimized: false)
!635 = !DISubroutineType(types: !636)
!636 = !{!621, !551, !63}
!637 = !DISubprogram(name: "operator=", linkageName: "_ZN11ap_int_baseILi192ELb0EEaSEs", scope: !528, file: !16, line: 515, type: !638, isLocal: false, isDefinition: false, scopeLine: 515, flags: DIFlagPrototyped, isOptimized: false)
!638 = !DISubroutineType(types: !639)
!639 = !{!621, !551, !68}
!640 = !DISubprogram(name: "operator=", linkageName: "_ZN11ap_int_baseILi192ELb0EEaSEt", scope: !528, file: !16, line: 516, type: !641, isLocal: false, isDefinition: false, scopeLine: 516, flags: DIFlagPrototyped, isOptimized: false)
!641 = !DISubroutineType(types: !642)
!642 = !{!621, !551, !73}
!643 = !DISubprogram(name: "operator=", linkageName: "_ZN11ap_int_baseILi192ELb0EEaSEi", scope: !528, file: !16, line: 517, type: !644, isLocal: false, isDefinition: false, scopeLine: 517, flags: DIFlagPrototyped, isOptimized: false)
!644 = !DISubroutineType(types: !645)
!645 = !{!621, !551, !30}
!646 = !DISubprogram(name: "operator=", linkageName: "_ZN11ap_int_baseILi192ELb0EEaSEj", scope: !528, file: !16, line: 518, type: !647, isLocal: false, isDefinition: false, scopeLine: 518, flags: DIFlagPrototyped, isOptimized: false)
!647 = !DISubroutineType(types: !648)
!648 = !{!621, !551, !81}
!649 = !DISubprogram(name: "operator=", linkageName: "_ZN11ap_int_baseILi192ELb0EEaSEl", scope: !528, file: !16, line: 519, type: !650, isLocal: false, isDefinition: false, scopeLine: 519, flags: DIFlagPrototyped, isOptimized: false)
!650 = !DISubroutineType(types: !651)
!651 = !{!621, !551, !86}
!652 = !DISubprogram(name: "operator=", linkageName: "_ZN11ap_int_baseILi192ELb0EEaSEm", scope: !528, file: !16, line: 520, type: !653, isLocal: false, isDefinition: false, scopeLine: 520, flags: DIFlagPrototyped, isOptimized: false)
!653 = !DISubroutineType(types: !654)
!654 = !{!621, !551, !91}
!655 = !DISubprogram(name: "operator=", linkageName: "_ZN11ap_int_baseILi192ELb0EEaSEx", scope: !528, file: !16, line: 521, type: !656, isLocal: false, isDefinition: false, scopeLine: 521, flags: DIFlagPrototyped, isOptimized: false)
!656 = !DISubroutineType(types: !657)
!657 = !{!621, !551, !96}
!658 = !DISubprogram(name: "operator=", linkageName: "_ZN11ap_int_baseILi192ELb0EEaSEy", scope: !528, file: !16, line: 522, type: !659, isLocal: false, isDefinition: false, scopeLine: 522, flags: DIFlagPrototyped, isOptimized: false)
!659 = !DISubroutineType(types: !660)
!660 = !{!621, !551, !103}
!661 = !DISubprogram(name: "operator unsigned long long", linkageName: "_ZNK11ap_int_baseILi192ELb0EEcvyEv", scope: !528, file: !16, line: 573, type: !662, isLocal: false, isDefinition: false, scopeLine: 573, flags: DIFlagPrototyped, isOptimized: false)
!662 = !DISubroutineType(types: !663)
!663 = !{!664, !546}
!664 = !DIDerivedType(tag: DW_TAG_typedef, name: "RetType", scope: !528, file: !16, line: 167, baseType: !665)
!665 = !DIDerivedType(tag: DW_TAG_typedef, name: "Type", scope: !666, file: !16, line: 90, baseType: !103)
!666 = distinct !DICompositeType(tag: DW_TAG_structure_type, name: "retval<24, false>", file: !16, line: 89, size: 8, flags: DIFlagTypePassByValue, elements: !4, templateParams: !667, identifier: "_ZTS6retvalILi24ELb0EE")
!667 = !{!668, !31}
!668 = !DITemplateValueParameter(name: "_AP_N", type: !30, value: i32 24)
!669 = !DISubprogram(name: "to_bool", linkageName: "_ZNK11ap_int_baseILi192ELb0EE7to_boolEv", scope: !528, file: !16, line: 578, type: !670, isLocal: false, isDefinition: false, scopeLine: 578, flags: DIFlagPrototyped, isOptimized: false)
!670 = !DISubroutineType(types: !671)
!671 = !{!32, !546}
!672 = !DISubprogram(name: "to_char", linkageName: "_ZNK11ap_int_baseILi192ELb0EE7to_charEv", scope: !528, file: !16, line: 579, type: !673, isLocal: false, isDefinition: false, scopeLine: 579, flags: DIFlagPrototyped, isOptimized: false)
!673 = !DISubroutineType(types: !674)
!674 = !{!53, !546}
!675 = !DISubprogram(name: "to_schar", linkageName: "_ZNK11ap_int_baseILi192ELb0EE8to_scharEv", scope: !528, file: !16, line: 580, type: !676, isLocal: false, isDefinition: false, scopeLine: 580, flags: DIFlagPrototyped, isOptimized: false)
!676 = !DISubroutineType(types: !677)
!677 = !{!58, !546}
!678 = !DISubprogram(name: "to_uchar", linkageName: "_ZNK11ap_int_baseILi192ELb0EE8to_ucharEv", scope: !528, file: !16, line: 581, type: !679, isLocal: false, isDefinition: false, scopeLine: 581, flags: DIFlagPrototyped, isOptimized: false)
!679 = !DISubroutineType(types: !680)
!680 = !{!63, !546}
!681 = !DISubprogram(name: "to_short", linkageName: "_ZNK11ap_int_baseILi192ELb0EE8to_shortEv", scope: !528, file: !16, line: 582, type: !682, isLocal: false, isDefinition: false, scopeLine: 582, flags: DIFlagPrototyped, isOptimized: false)
!682 = !DISubroutineType(types: !683)
!683 = !{!68, !546}
!684 = !DISubprogram(name: "to_ushort", linkageName: "_ZNK11ap_int_baseILi192ELb0EE9to_ushortEv", scope: !528, file: !16, line: 583, type: !685, isLocal: false, isDefinition: false, scopeLine: 583, flags: DIFlagPrototyped, isOptimized: false)
!685 = !DISubroutineType(types: !686)
!686 = !{!73, !546}
!687 = !DISubprogram(name: "to_int", linkageName: "_ZNK11ap_int_baseILi192ELb0EE6to_intEv", scope: !528, file: !16, line: 584, type: !544, isLocal: false, isDefinition: false, scopeLine: 584, flags: DIFlagPrototyped, isOptimized: false)
!688 = !DISubprogram(name: "to_uint", linkageName: "_ZNK11ap_int_baseILi192ELb0EE7to_uintEv", scope: !528, file: !16, line: 585, type: !689, isLocal: false, isDefinition: false, scopeLine: 585, flags: DIFlagPrototyped, isOptimized: false)
!689 = !DISubroutineType(types: !690)
!690 = !{!81, !546}
!691 = !DISubprogram(name: "to_long", linkageName: "_ZNK11ap_int_baseILi192ELb0EE7to_longEv", scope: !528, file: !16, line: 586, type: !692, isLocal: false, isDefinition: false, scopeLine: 586, flags: DIFlagPrototyped, isOptimized: false)
!692 = !DISubroutineType(types: !693)
!693 = !{!86, !546}
!694 = !DISubprogram(name: "to_ulong", linkageName: "_ZNK11ap_int_baseILi192ELb0EE8to_ulongEv", scope: !528, file: !16, line: 587, type: !695, isLocal: false, isDefinition: false, scopeLine: 587, flags: DIFlagPrototyped, isOptimized: false)
!695 = !DISubroutineType(types: !696)
!696 = !{!91, !546}
!697 = !DISubprogram(name: "to_int64", linkageName: "_ZNK11ap_int_baseILi192ELb0EE8to_int64Ev", scope: !528, file: !16, line: 588, type: !698, isLocal: false, isDefinition: false, scopeLine: 588, flags: DIFlagPrototyped, isOptimized: false)
!698 = !DISubroutineType(types: !699)
!699 = !{!96, !546}
!700 = !DISubprogram(name: "to_uint64", linkageName: "_ZNK11ap_int_baseILi192ELb0EE9to_uint64Ev", scope: !528, file: !16, line: 589, type: !701, isLocal: false, isDefinition: false, scopeLine: 589, flags: DIFlagPrototyped, isOptimized: false)
!701 = !DISubroutineType(types: !702)
!702 = !{!103, !546}
!703 = !DISubprogram(name: "to_half", linkageName: "_ZNK11ap_int_baseILi192ELb0EE7to_halfEv", scope: !528, file: !16, line: 590, type: !704, isLocal: false, isDefinition: false, scopeLine: 590, flags: DIFlagPrototyped, isOptimized: false)
!704 = !DISubroutineType(types: !705)
!705 = !{!108, !546}
!706 = !DISubprogram(name: "to_float", linkageName: "_ZNK11ap_int_baseILi192ELb0EE8to_floatEv", scope: !528, file: !16, line: 591, type: !707, isLocal: false, isDefinition: false, scopeLine: 591, flags: DIFlagPrototyped, isOptimized: false)
!707 = !DISubroutineType(types: !708)
!708 = !{!113, !546}
!709 = !DISubprogram(name: "to_double", linkageName: "_ZNK11ap_int_baseILi192ELb0EE9to_doubleEv", scope: !528, file: !16, line: 592, type: !710, isLocal: false, isDefinition: false, scopeLine: 592, flags: DIFlagPrototyped, isOptimized: false)
!710 = !DISubroutineType(types: !711)
!711 = !{!117, !546}
!712 = !DISubprogram(name: "length", linkageName: "_ZNVK11ap_int_baseILi192ELb0EE6lengthEv", scope: !528, file: !16, line: 616, type: !713, isLocal: false, isDefinition: false, scopeLine: 616, flags: DIFlagPrototyped, isOptimized: false)
!713 = !DISubroutineType(types: !714)
!714 = !{!30, !715}
!715 = !DIDerivedType(tag: DW_TAG_pointer_type, baseType: !616, size: 64, flags: DIFlagArtificial | DIFlagObjectPointer)
!716 = !DISubprogram(name: "iszero", linkageName: "_ZNK11ap_int_baseILi192ELb0EE6iszeroEv", scope: !528, file: !16, line: 619, type: !670, isLocal: false, isDefinition: false, scopeLine: 619, flags: DIFlagPrototyped, isOptimized: false)
!717 = !DISubprogram(name: "is_zero", linkageName: "_ZNK11ap_int_baseILi192ELb0EE7is_zeroEv", scope: !528, file: !16, line: 622, type: !670, isLocal: false, isDefinition: false, scopeLine: 622, flags: DIFlagPrototyped, isOptimized: false)
!718 = !DISubprogram(name: "sign", linkageName: "_ZNK11ap_int_baseILi192ELb0EE4signEv", scope: !528, file: !16, line: 625, type: !670, isLocal: false, isDefinition: false, scopeLine: 625, flags: DIFlagPrototyped, isOptimized: false)
!719 = !DISubprogram(name: "clear", linkageName: "_ZN11ap_int_baseILi192ELb0EE5clearEi", scope: !528, file: !16, line: 634, type: !720, isLocal: false, isDefinition: false, scopeLine: 634, flags: DIFlagPrototyped, isOptimized: false)
!720 = !DISubroutineType(types: !721)
!721 = !{null, !551, !30}
!722 = !DISubprogram(name: "invert", linkageName: "_ZN11ap_int_baseILi192ELb0EE6invertEi", scope: !528, file: !16, line: 640, type: !720, isLocal: false, isDefinition: false, scopeLine: 640, flags: DIFlagPrototyped, isOptimized: false)
!723 = !DISubprogram(name: "test", linkageName: "_ZNK11ap_int_baseILi192ELb0EE4testEi", scope: !528, file: !16, line: 649, type: !724, isLocal: false, isDefinition: false, scopeLine: 649, flags: DIFlagPrototyped, isOptimized: false)
!724 = !DISubroutineType(types: !725)
!725 = !{!32, !546, !30}
!726 = !DISubprogram(name: "get", linkageName: "_ZN11ap_int_baseILi192ELb0EE3getEv", scope: !528, file: !16, line: 655, type: !727, isLocal: false, isDefinition: false, scopeLine: 655, flags: DIFlagPrototyped, isOptimized: false)
!727 = !DISubroutineType(types: !728)
!728 = !{!621, !551}
!729 = !DISubprogram(name: "set", linkageName: "_ZN11ap_int_baseILi192ELb0EE3setEi", scope: !528, file: !16, line: 658, type: !720, isLocal: false, isDefinition: false, scopeLine: 658, flags: DIFlagPrototyped, isOptimized: false)
!730 = !DISubprogram(name: "set", linkageName: "_ZN11ap_int_baseILi192ELb0EE3setEib", scope: !528, file: !16, line: 664, type: !731, isLocal: false, isDefinition: false, scopeLine: 664, flags: DIFlagPrototyped, isOptimized: false)
!731 = !DISubroutineType(types: !732)
!732 = !{null, !551, !30, !32}
!733 = !DISubprogram(name: "lrotate", linkageName: "_ZN11ap_int_baseILi192ELb0EE7lrotateEi", scope: !528, file: !16, line: 671, type: !644, isLocal: false, isDefinition: false, scopeLine: 671, flags: DIFlagPrototyped, isOptimized: false)
!734 = !DISubprogram(name: "rrotate", linkageName: "_ZN11ap_int_baseILi192ELb0EE7rrotateEi", scope: !528, file: !16, line: 686, type: !644, isLocal: false, isDefinition: false, scopeLine: 686, flags: DIFlagPrototyped, isOptimized: false)
!735 = !DISubprogram(name: "reverse", linkageName: "_ZN11ap_int_baseILi192ELb0EE7reverseEv", scope: !528, file: !16, line: 701, type: !727, isLocal: false, isDefinition: false, scopeLine: 701, flags: DIFlagPrototyped, isOptimized: false)
!736 = !DISubprogram(name: "set_bit", linkageName: "_ZN11ap_int_baseILi192ELb0EE7set_bitEib", scope: !528, file: !16, line: 707, type: !731, isLocal: false, isDefinition: false, scopeLine: 707, flags: DIFlagPrototyped, isOptimized: false)
!737 = !DISubprogram(name: "get_bit", linkageName: "_ZNK11ap_int_baseILi192ELb0EE7get_bitEi", scope: !528, file: !16, line: 712, type: !724, isLocal: false, isDefinition: false, scopeLine: 712, flags: DIFlagPrototyped, isOptimized: false)
!738 = !DISubprogram(name: "b_not", linkageName: "_ZN11ap_int_baseILi192ELb0EE5b_notEv", scope: !528, file: !16, line: 717, type: !549, isLocal: false, isDefinition: false, scopeLine: 717, flags: DIFlagPrototyped, isOptimized: false)
!739 = !DISubprogram(name: "checkOverflowCsim", linkageName: "_ZNK11ap_int_baseILi192ELb0EE17checkOverflowCsimEibb", scope: !528, file: !16, line: 791, type: !740, isLocal: false, isDefinition: false, scopeLine: 791, flags: DIFlagPrototyped, isOptimized: false)
!740 = !DISubroutineType(types: !741)
!741 = !{!32, !546, !30, !32, !32}
!742 = !DISubprogram(name: "operator++", linkageName: "_ZN11ap_int_baseILi192ELb0EEppEv", scope: !528, file: !16, line: 895, type: !727, isLocal: false, isDefinition: false, scopeLine: 895, flags: DIFlagPrototyped, isOptimized: false)
!743 = !DISubprogram(name: "operator--", linkageName: "_ZN11ap_int_baseILi192ELb0EEmmEv", scope: !528, file: !16, line: 899, type: !727, isLocal: false, isDefinition: false, scopeLine: 899, flags: DIFlagPrototyped, isOptimized: false)
!744 = !DISubprogram(name: "operator++", linkageName: "_ZN11ap_int_baseILi192ELb0EEppEi", scope: !528, file: !16, line: 907, type: !745, isLocal: false, isDefinition: false, scopeLine: 907, flags: DIFlagPrototyped, isOptimized: false)
!745 = !DISubroutineType(types: !746)
!746 = !{!747, !551, !30}
!747 = !DIDerivedType(tag: DW_TAG_const_type, baseType: !748)
!748 = !DIDerivedType(tag: DW_TAG_typedef, name: "arg1", scope: !749, file: !16, line: 206, baseType: !752)
!749 = distinct !DICompositeType(tag: DW_TAG_structure_type, name: "RType<192, false>", scope: !528, file: !16, line: 173, size: 8, flags: DIFlagTypePassByValue, elements: !4, templateParams: !750, identifier: "_ZTSN11ap_int_baseILi192ELb0EE5RTypeILi192ELb0EEE")
!750 = !{!751, !274}
!751 = !DITemplateValueParameter(name: "_AP_W2", type: !30, value: i32 192)
!752 = !DIDerivedType(tag: DW_TAG_typedef, name: "type", scope: !753, file: !16, line: 144, baseType: !525)
!753 = distinct !DICompositeType(tag: DW_TAG_structure_type, name: "_ap_int_factory<192, false>", file: !16, line: 144, size: 8, flags: DIFlagTypePassByValue, elements: !4, templateParams: !750, identifier: "_ZTS15_ap_int_factoryILi192ELb0EE")
!754 = !DISubprogram(name: "operator--", linkageName: "_ZN11ap_int_baseILi192ELb0EEmmEi", scope: !528, file: !16, line: 912, type: !745, isLocal: false, isDefinition: false, scopeLine: 912, flags: DIFlagPrototyped, isOptimized: false)
!755 = !DISubprogram(name: "operator+", linkageName: "_ZNK11ap_int_baseILi192ELb0EEpsEv", scope: !528, file: !16, line: 921, type: !756, isLocal: false, isDefinition: false, scopeLine: 921, flags: DIFlagPrototyped, isOptimized: false)
!756 = !DISubroutineType(types: !757)
!757 = !{!748, !546}
!758 = !DISubprogram(name: "operator-", linkageName: "_ZNK11ap_int_baseILi192ELb0EEngEv", scope: !528, file: !16, line: 924, type: !759, isLocal: false, isDefinition: false, scopeLine: 924, flags: DIFlagPrototyped, isOptimized: false)
!759 = !DISubroutineType(types: !760)
!760 = !{!761, !546}
!761 = !DIDerivedType(tag: DW_TAG_typedef, name: "minus", scope: !762, file: !16, line: 202, baseType: !763)
!762 = distinct !DICompositeType(tag: DW_TAG_structure_type, name: "RType<1, false>", scope: !528, file: !16, line: 173, size: 8, flags: DIFlagTypePassByValue, elements: !4, templateParams: !286, identifier: "_ZTSN11ap_int_baseILi192ELb0EE5RTypeILi1ELb0EEE")
!763 = !DIDerivedType(tag: DW_TAG_typedef, name: "type", scope: !764, file: !16, line: 142, baseType: !767)
!764 = distinct !DICompositeType(tag: DW_TAG_structure_type, name: "_ap_int_factory<193, true>", file: !16, line: 142, size: 8, flags: DIFlagTypePassByValue, elements: !4, templateParams: !765, identifier: "_ZTS15_ap_int_factoryILi193ELb1EE")
!765 = !{!766, !292}
!766 = !DITemplateValueParameter(name: "_AP_W2", type: !30, value: i32 193)
!767 = distinct !DICompositeType(tag: DW_TAG_structure_type, name: "ap_int<193>", file: !97, line: 183, flags: DIFlagFwdDecl, identifier: "_ZTS6ap_intILi193EE")
!768 = !DISubprogram(name: "operator!", linkageName: "_ZNK11ap_int_baseILi192ELb0EEntEv", scope: !528, file: !16, line: 931, type: !670, isLocal: false, isDefinition: false, scopeLine: 931, flags: DIFlagPrototyped, isOptimized: false)
!769 = !DISubprogram(name: "operator~", linkageName: "_ZNK11ap_int_baseILi192ELb0EEcoEv", scope: !528, file: !16, line: 937, type: !756, isLocal: false, isDefinition: false, scopeLine: 937, flags: DIFlagPrototyped, isOptimized: false)
!770 = !DISubprogram(name: "range", linkageName: "_ZN11ap_int_baseILi192ELb0EE5rangeEii", scope: !528, file: !16, line: 1075, type: !771, isLocal: false, isDefinition: false, scopeLine: 1075, flags: DIFlagPrototyped, isOptimized: false)
!771 = !DISubroutineType(types: !772)
!772 = !{!773, !551, !30, !30}
!773 = distinct !DICompositeType(tag: DW_TAG_structure_type, name: "ap_range_ref<192, false>", file: !300, line: 336, size: 128, flags: DIFlagTypePassByReference, elements: !774, templateParams: !888, identifier: "_ZTS12ap_range_refILi192ELb0EE")
!774 = !{!775, !778, !779, !780, !786, !790, !795, !799, !802, !806, !809, !812, !815, !818, !821, !824, !827, !830, !833, !836, !839, !842, !845, !848, !851, !854, !858, !859, !860, !861, !862, !863, !866, !867, !870, !873, !876, !879, !880, !883, !884, !885}
!775 = !DIDerivedType(tag: DW_TAG_member, name: "d_bv", scope: !773, file: !300, line: 341, baseType: !776, size: 64)
!776 = !DIDerivedType(tag: DW_TAG_reference_type, baseType: !777, size: 64)
!777 = !DIDerivedType(tag: DW_TAG_typedef, name: "ref_type", scope: !773, file: !300, line: 340, baseType: !528)
!778 = !DIDerivedType(tag: DW_TAG_member, name: "l_index", scope: !773, file: !300, line: 342, baseType: !30, size: 32, offset: 64)
!779 = !DIDerivedType(tag: DW_TAG_member, name: "h_index", scope: !773, file: !300, line: 343, baseType: !30, size: 32, offset: 96)
!780 = !DISubprogram(name: "ap_range_ref", scope: !773, file: !300, line: 346, type: !781, isLocal: false, isDefinition: false, scopeLine: 346, flags: DIFlagPrototyped, isOptimized: false)
!781 = !DISubroutineType(types: !782)
!782 = !{null, !783, !784}
!783 = !DIDerivedType(tag: DW_TAG_pointer_type, baseType: !773, size: 64, flags: DIFlagArtificial | DIFlagObjectPointer)
!784 = !DIDerivedType(tag: DW_TAG_reference_type, baseType: !785, size: 64)
!785 = !DIDerivedType(tag: DW_TAG_const_type, baseType: !773)
!786 = !DISubprogram(name: "ap_range_ref", scope: !773, file: !300, line: 349, type: !787, isLocal: false, isDefinition: false, scopeLine: 349, flags: DIFlagPrototyped, isOptimized: false)
!787 = !DISubroutineType(types: !788)
!788 = !{null, !783, !789, !30, !30}
!789 = !DIDerivedType(tag: DW_TAG_pointer_type, baseType: !777, size: 64)
!790 = !DISubprogram(name: "ap_range_ref", scope: !773, file: !300, line: 352, type: !791, isLocal: false, isDefinition: false, scopeLine: 352, flags: DIFlagPrototyped, isOptimized: false)
!791 = !DISubroutineType(types: !792)
!792 = !{null, !783, !793, !30, !30}
!793 = !DIDerivedType(tag: DW_TAG_pointer_type, baseType: !794, size: 64)
!794 = !DIDerivedType(tag: DW_TAG_const_type, baseType: !777)
!795 = !DISubprogram(name: "operator ap_int_base", linkageName: "_ZNK12ap_range_refILi192ELb0EEcv11ap_int_baseILi192ELb0EEEv", scope: !773, file: !300, line: 355, type: !796, isLocal: false, isDefinition: false, scopeLine: 355, flags: DIFlagPrototyped, isOptimized: false)
!796 = !DISubroutineType(types: !797)
!797 = !{!528, !798}
!798 = !DIDerivedType(tag: DW_TAG_pointer_type, baseType: !785, size: 64, flags: DIFlagArtificial | DIFlagObjectPointer)
!799 = !DISubprogram(name: "operator unsigned long long", linkageName: "_ZNK12ap_range_refILi192ELb0EEcvyEv", scope: !773, file: !300, line: 361, type: !800, isLocal: false, isDefinition: false, scopeLine: 361, flags: DIFlagPrototyped, isOptimized: false)
!800 = !DISubroutineType(types: !801)
!801 = !{!103, !798}
!802 = !DISubprogram(name: "operator=", linkageName: "_ZN12ap_range_refILi192ELb0EEaSEb", scope: !773, file: !300, line: 385, type: !803, isLocal: false, isDefinition: false, scopeLine: 385, flags: DIFlagPrototyped, isOptimized: false)
!803 = !DISubroutineType(types: !804)
!804 = !{!805, !783, !32}
!805 = !DIDerivedType(tag: DW_TAG_reference_type, baseType: !773, size: 64)
!806 = !DISubprogram(name: "operator=", linkageName: "_ZN12ap_range_refILi192ELb0EEaSEc", scope: !773, file: !300, line: 386, type: !807, isLocal: false, isDefinition: false, scopeLine: 386, flags: DIFlagPrototyped, isOptimized: false)
!807 = !DISubroutineType(types: !808)
!808 = !{!805, !783, !53}
!809 = !DISubprogram(name: "operator=", linkageName: "_ZN12ap_range_refILi192ELb0EEaSEa", scope: !773, file: !300, line: 387, type: !810, isLocal: false, isDefinition: false, scopeLine: 387, flags: DIFlagPrototyped, isOptimized: false)
!810 = !DISubroutineType(types: !811)
!811 = !{!805, !783, !58}
!812 = !DISubprogram(name: "operator=", linkageName: "_ZN12ap_range_refILi192ELb0EEaSEh", scope: !773, file: !300, line: 388, type: !813, isLocal: false, isDefinition: false, scopeLine: 388, flags: DIFlagPrototyped, isOptimized: false)
!813 = !DISubroutineType(types: !814)
!814 = !{!805, !783, !63}
!815 = !DISubprogram(name: "operator=", linkageName: "_ZN12ap_range_refILi192ELb0EEaSEs", scope: !773, file: !300, line: 389, type: !816, isLocal: false, isDefinition: false, scopeLine: 389, flags: DIFlagPrototyped, isOptimized: false)
!816 = !DISubroutineType(types: !817)
!817 = !{!805, !783, !68}
!818 = !DISubprogram(name: "operator=", linkageName: "_ZN12ap_range_refILi192ELb0EEaSEt", scope: !773, file: !300, line: 390, type: !819, isLocal: false, isDefinition: false, scopeLine: 390, flags: DIFlagPrototyped, isOptimized: false)
!819 = !DISubroutineType(types: !820)
!820 = !{!805, !783, !73}
!821 = !DISubprogram(name: "operator=", linkageName: "_ZN12ap_range_refILi192ELb0EEaSEi", scope: !773, file: !300, line: 391, type: !822, isLocal: false, isDefinition: false, scopeLine: 391, flags: DIFlagPrototyped, isOptimized: false)
!822 = !DISubroutineType(types: !823)
!823 = !{!805, !783, !30}
!824 = !DISubprogram(name: "operator=", linkageName: "_ZN12ap_range_refILi192ELb0EEaSEj", scope: !773, file: !300, line: 392, type: !825, isLocal: false, isDefinition: false, scopeLine: 392, flags: DIFlagPrototyped, isOptimized: false)
!825 = !DISubroutineType(types: !826)
!826 = !{!805, !783, !81}
!827 = !DISubprogram(name: "operator=", linkageName: "_ZN12ap_range_refILi192ELb0EEaSEl", scope: !773, file: !300, line: 393, type: !828, isLocal: false, isDefinition: false, scopeLine: 393, flags: DIFlagPrototyped, isOptimized: false)
!828 = !DISubroutineType(types: !829)
!829 = !{!805, !783, !86}
!830 = !DISubprogram(name: "operator=", linkageName: "_ZN12ap_range_refILi192ELb0EEaSEm", scope: !773, file: !300, line: 394, type: !831, isLocal: false, isDefinition: false, scopeLine: 394, flags: DIFlagPrototyped, isOptimized: false)
!831 = !DISubroutineType(types: !832)
!832 = !{!805, !783, !91}
!833 = !DISubprogram(name: "operator=", linkageName: "_ZN12ap_range_refILi192ELb0EEaSEx", scope: !773, file: !300, line: 395, type: !834, isLocal: false, isDefinition: false, scopeLine: 395, flags: DIFlagPrototyped, isOptimized: false)
!834 = !DISubroutineType(types: !835)
!835 = !{!805, !783, !96}
!836 = !DISubprogram(name: "operator=", linkageName: "_ZN12ap_range_refILi192ELb0EEaSEy", scope: !773, file: !300, line: 396, type: !837, isLocal: false, isDefinition: false, scopeLine: 396, flags: DIFlagPrototyped, isOptimized: false)
!837 = !DISubroutineType(types: !838)
!838 = !{!805, !783, !103}
!839 = !DISubprogram(name: "operator=", linkageName: "_ZN12ap_range_refILi192ELb0EEaSEDh", scope: !773, file: !300, line: 397, type: !840, isLocal: false, isDefinition: false, scopeLine: 397, flags: DIFlagPrototyped, isOptimized: false)
!840 = !DISubroutineType(types: !841)
!841 = !{!805, !783, !108}
!842 = !DISubprogram(name: "operator=", linkageName: "_ZN12ap_range_refILi192ELb0EEaSEf", scope: !773, file: !300, line: 398, type: !843, isLocal: false, isDefinition: false, scopeLine: 398, flags: DIFlagPrototyped, isOptimized: false)
!843 = !DISubroutineType(types: !844)
!844 = !{!805, !783, !113}
!845 = !DISubprogram(name: "operator=", linkageName: "_ZN12ap_range_refILi192ELb0EEaSEd", scope: !773, file: !300, line: 399, type: !846, isLocal: false, isDefinition: false, scopeLine: 399, flags: DIFlagPrototyped, isOptimized: false)
!846 = !DISubroutineType(types: !847)
!847 = !{!805, !783, !117}
!848 = !DISubprogram(name: "operator=", linkageName: "_ZN12ap_range_refILi192ELb0EEaSEPKc", scope: !773, file: !300, line: 404, type: !849, isLocal: false, isDefinition: false, scopeLine: 404, flags: DIFlagPrototyped, isOptimized: false)
!849 = !DISubroutineType(types: !850)
!850 = !{!805, !783, !121}
!851 = !DISubprogram(name: "operator=", linkageName: "_ZN12ap_range_refILi192ELb0EEaSERKS0_", scope: !773, file: !300, line: 421, type: !852, isLocal: false, isDefinition: false, scopeLine: 421, flags: DIFlagPrototyped, isOptimized: false)
!852 = !DISubroutineType(types: !853)
!853 = !{!805, !783, !784}
!854 = !DISubprogram(name: "operator,", linkageName: "_ZN12ap_range_refILi192ELb0EEcmER11ap_int_baseILi192ELb0EE", scope: !773, file: !300, line: 489, type: !855, isLocal: false, isDefinition: false, scopeLine: 489, flags: DIFlagPrototyped, isOptimized: false)
!855 = !DISubroutineType(types: !856)
!856 = !{!857, !783, !621}
!857 = distinct !DICompositeType(tag: DW_TAG_structure_type, name: "ap_concat_ref<192, ap_range_ref<192, false>, 192, ap_int_base<192, false> >", file: !300, line: 74, flags: DIFlagFwdDecl, identifier: "_ZTS13ap_concat_refILi192E12ap_range_refILi192ELb0EELi192E11ap_int_baseILi192ELb0EEE")
!858 = !DISubprogram(name: "operator~", linkageName: "_ZNK12ap_range_refILi192ELb0EEcoEv", scope: !773, file: !300, line: 647, type: !796, isLocal: false, isDefinition: false, scopeLine: 647, flags: DIFlagPrototyped, isOptimized: false)
!859 = !DISubprogram(name: "operator!", linkageName: "_ZNK12ap_range_refILi192ELb0EEntEv", scope: !773, file: !300, line: 653, type: !796, isLocal: false, isDefinition: false, scopeLine: 653, flags: DIFlagPrototyped, isOptimized: false)
!860 = !DISubprogram(name: "operator+", linkageName: "_ZNK12ap_range_refILi192ELb0EEpsEv", scope: !773, file: !300, line: 659, type: !796, isLocal: false, isDefinition: false, scopeLine: 659, flags: DIFlagPrototyped, isOptimized: false)
!861 = !DISubprogram(name: "operator-", linkageName: "_ZNK12ap_range_refILi192ELb0EEngEv", scope: !773, file: !300, line: 665, type: !796, isLocal: false, isDefinition: false, scopeLine: 665, flags: DIFlagPrototyped, isOptimized: false)
!862 = !DISubprogram(name: "get", linkageName: "_ZNK12ap_range_refILi192ELb0EE3getEv", scope: !773, file: !300, line: 672, type: !796, isLocal: false, isDefinition: false, scopeLine: 672, flags: DIFlagPrototyped, isOptimized: false)
!863 = !DISubprogram(name: "length", linkageName: "_ZNK12ap_range_refILi192ELb0EE6lengthEv", scope: !773, file: !300, line: 683, type: !864, isLocal: false, isDefinition: false, scopeLine: 683, flags: DIFlagPrototyped, isOptimized: false)
!864 = !DISubroutineType(types: !865)
!865 = !{!30, !798}
!866 = !DISubprogram(name: "to_int", linkageName: "_ZNK12ap_range_refILi192ELb0EE6to_intEv", scope: !773, file: !300, line: 687, type: !864, isLocal: false, isDefinition: false, scopeLine: 687, flags: DIFlagPrototyped, isOptimized: false)
!867 = !DISubprogram(name: "to_uint", linkageName: "_ZNK12ap_range_refILi192ELb0EE7to_uintEv", scope: !773, file: !300, line: 691, type: !868, isLocal: false, isDefinition: false, scopeLine: 691, flags: DIFlagPrototyped, isOptimized: false)
!868 = !DISubroutineType(types: !869)
!869 = !{!81, !798}
!870 = !DISubprogram(name: "to_long", linkageName: "_ZNK12ap_range_refILi192ELb0EE7to_longEv", scope: !773, file: !300, line: 695, type: !871, isLocal: false, isDefinition: false, scopeLine: 695, flags: DIFlagPrototyped, isOptimized: false)
!871 = !DISubroutineType(types: !872)
!872 = !{!86, !798}
!873 = !DISubprogram(name: "to_ulong", linkageName: "_ZNK12ap_range_refILi192ELb0EE8to_ulongEv", scope: !773, file: !300, line: 699, type: !874, isLocal: false, isDefinition: false, scopeLine: 699, flags: DIFlagPrototyped, isOptimized: false)
!874 = !DISubroutineType(types: !875)
!875 = !{!91, !798}
!876 = !DISubprogram(name: "to_int64", linkageName: "_ZNK12ap_range_refILi192ELb0EE8to_int64Ev", scope: !773, file: !300, line: 703, type: !877, isLocal: false, isDefinition: false, scopeLine: 703, flags: DIFlagPrototyped, isOptimized: false)
!877 = !DISubroutineType(types: !878)
!878 = !{!96, !798}
!879 = !DISubprogram(name: "to_uint64", linkageName: "_ZNK12ap_range_refILi192ELb0EE9to_uint64Ev", scope: !773, file: !300, line: 707, type: !800, isLocal: false, isDefinition: false, scopeLine: 707, flags: DIFlagPrototyped, isOptimized: false)
!880 = !DISubprogram(name: "and_reduce", linkageName: "_ZNK12ap_range_refILi192ELb0EE10and_reduceEv", scope: !773, file: !300, line: 711, type: !881, isLocal: false, isDefinition: false, scopeLine: 711, flags: DIFlagPrototyped, isOptimized: false)
!881 = !DISubroutineType(types: !882)
!882 = !{!32, !798}
!883 = !DISubprogram(name: "or_reduce", linkageName: "_ZNK12ap_range_refILi192ELb0EE9or_reduceEv", scope: !773, file: !300, line: 725, type: !881, isLocal: false, isDefinition: false, scopeLine: 725, flags: DIFlagPrototyped, isOptimized: false)
!884 = !DISubprogram(name: "xor_reduce", linkageName: "_ZNK12ap_range_refILi192ELb0EE10xor_reduceEv", scope: !773, file: !300, line: 739, type: !881, isLocal: false, isDefinition: false, scopeLine: 739, flags: DIFlagPrototyped, isOptimized: false)
!885 = !DISubprogram(name: "to_string", linkageName: "_ZNK12ap_range_refILi192ELb0EE9to_stringEa", scope: !773, file: !300, line: 760, type: !886, isLocal: false, isDefinition: false, scopeLine: 760, flags: DIFlagPrototyped, isOptimized: false)
!886 = !DISubroutineType(types: !887)
!887 = !{!415, !798, !58}
!888 = !{!889, !31}
!889 = !DITemplateValueParameter(name: "_AP_W", type: !30, value: i32 192)
!890 = !DISubprogram(name: "range", linkageName: "_ZNK11ap_int_baseILi192ELb0EE5rangeEii", scope: !528, file: !16, line: 1082, type: !891, isLocal: false, isDefinition: false, scopeLine: 1082, flags: DIFlagPrototyped, isOptimized: false)
!891 = !DISubroutineType(types: !892)
!892 = !{!773, !546, !30, !30}
!893 = !DISubprogram(name: "range", linkageName: "_ZN11ap_int_baseILi192ELb0EE5rangeEv", scope: !528, file: !16, line: 1106, type: !894, isLocal: false, isDefinition: false, scopeLine: 1106, flags: DIFlagPrototyped, isOptimized: false)
!894 = !DISubroutineType(types: !895)
!895 = !{!773, !551}
!896 = !DISubprogram(name: "range", linkageName: "_ZNK11ap_int_baseILi192ELb0EE5rangeEv", scope: !528, file: !16, line: 1110, type: !897, isLocal: false, isDefinition: false, scopeLine: 1110, flags: DIFlagPrototyped, isOptimized: false)
!897 = !DISubroutineType(types: !898)
!898 = !{!773, !546}
!899 = !DISubprogram(name: "operator()", linkageName: "_ZN11ap_int_baseILi192ELb0EEclEii", scope: !528, file: !16, line: 1114, type: !771, isLocal: false, isDefinition: false, scopeLine: 1114, flags: DIFlagPrototyped, isOptimized: false)
!900 = !DISubprogram(name: "operator()", linkageName: "_ZNK11ap_int_baseILi192ELb0EEclEii", scope: !528, file: !16, line: 1118, type: !891, isLocal: false, isDefinition: false, scopeLine: 1118, flags: DIFlagPrototyped, isOptimized: false)
!901 = !DISubprogram(name: "operator[]", linkageName: "_ZN11ap_int_baseILi192ELb0EEixEi", scope: !528, file: !16, line: 1156, type: !902, isLocal: false, isDefinition: false, scopeLine: 1156, flags: DIFlagPrototyped, isOptimized: false)
!902 = !DISubroutineType(types: !903)
!903 = !{!904, !551, !30}
!904 = distinct !DICompositeType(tag: DW_TAG_structure_type, name: "ap_bit_ref<192, false>", file: !97, line: 192, flags: DIFlagFwdDecl, identifier: "_ZTS10ap_bit_refILi192ELb0EE")
!905 = !DISubprogram(name: "operator[]", linkageName: "_ZNK11ap_int_baseILi192ELb0EEixEi", scope: !528, file: !16, line: 1172, type: !724, isLocal: false, isDefinition: false, scopeLine: 1172, flags: DIFlagPrototyped, isOptimized: false)
!906 = !DISubprogram(name: "bit", linkageName: "_ZN11ap_int_baseILi192ELb0EE3bitEi", scope: !528, file: !16, line: 1185, type: !902, isLocal: false, isDefinition: false, scopeLine: 1185, flags: DIFlagPrototyped, isOptimized: false)
!907 = !DISubprogram(name: "bit", linkageName: "_ZNK11ap_int_baseILi192ELb0EE3bitEi", scope: !528, file: !16, line: 1200, type: !724, isLocal: false, isDefinition: false, scopeLine: 1200, flags: DIFlagPrototyped, isOptimized: false)
!908 = !DISubprogram(name: "countLeadingZeros", linkageName: "_ZNK11ap_int_baseILi192ELb0EE17countLeadingZerosEv", scope: !528, file: !16, line: 1223, type: !544, isLocal: false, isDefinition: false, scopeLine: 1223, flags: DIFlagPrototyped, isOptimized: false)
!909 = !DISubprogram(name: "and_reduce", linkageName: "_ZNK11ap_int_baseILi192ELb0EE10and_reduceEv", scope: !528, file: !16, line: 1443, type: !670, isLocal: false, isDefinition: false, scopeLine: 1443, flags: DIFlagPrototyped, isOptimized: false)
!910 = !DISubprogram(name: "nand_reduce", linkageName: "_ZNK11ap_int_baseILi192ELb0EE11nand_reduceEv", scope: !528, file: !16, line: 1444, type: !670, isLocal: false, isDefinition: false, scopeLine: 1444, flags: DIFlagPrototyped, isOptimized: false)
!911 = !DISubprogram(name: "or_reduce", linkageName: "_ZNK11ap_int_baseILi192ELb0EE9or_reduceEv", scope: !528, file: !16, line: 1445, type: !670, isLocal: false, isDefinition: false, scopeLine: 1445, flags: DIFlagPrototyped, isOptimized: false)
!912 = !DISubprogram(name: "nor_reduce", linkageName: "_ZNK11ap_int_baseILi192ELb0EE10nor_reduceEv", scope: !528, file: !16, line: 1446, type: !670, isLocal: false, isDefinition: false, scopeLine: 1446, flags: DIFlagPrototyped, isOptimized: false)
!913 = !DISubprogram(name: "xor_reduce", linkageName: "_ZNK11ap_int_baseILi192ELb0EE10xor_reduceEv", scope: !528, file: !16, line: 1447, type: !670, isLocal: false, isDefinition: false, scopeLine: 1447, flags: DIFlagPrototyped, isOptimized: false)
!914 = !DISubprogram(name: "xnor_reduce", linkageName: "_ZNK11ap_int_baseILi192ELb0EE11xnor_reduceEv", scope: !528, file: !16, line: 1448, type: !670, isLocal: false, isDefinition: false, scopeLine: 1448, flags: DIFlagPrototyped, isOptimized: false)
!915 = !DISubprogram(name: "to_string", linkageName: "_ZNK11ap_int_baseILi192ELb0EE9to_stringEab", scope: !528, file: !16, line: 1463, type: !916, isLocal: false, isDefinition: false, scopeLine: 1463, flags: DIFlagPrototyped, isOptimized: false)
!916 = !DISubroutineType(types: !917)
!917 = !{!415, !546, !58, !32}
!918 = !DISubprogram(name: "ap_uint", scope: !525, file: !12, line: 213, type: !919, isLocal: false, isDefinition: false, scopeLine: 213, flags: DIFlagPrototyped, isOptimized: false)
!919 = !DISubroutineType(types: !920)
!920 = !{null, !921}
!921 = !DIDerivedType(tag: DW_TAG_pointer_type, baseType: !525, size: 64, flags: DIFlagArtificial | DIFlagObjectPointer)
!922 = !DISubprogram(name: "ap_uint", scope: !525, file: !12, line: 241, type: !923, isLocal: false, isDefinition: false, scopeLine: 241, flags: DIFlagPrototyped, isOptimized: false)
!923 = !DISubroutineType(types: !924)
!924 = !{null, !921, !534, !32}
!925 = !DISubprogram(name: "ap_uint", scope: !525, file: !12, line: 309, type: !926, isLocal: false, isDefinition: false, scopeLine: 309, flags: DIFlagPrototyped, isOptimized: false)
!926 = !DISubroutineType(types: !927)
!927 = !{null, !921, !32}
!928 = !DISubprogram(name: "ap_uint", scope: !525, file: !12, line: 310, type: !929, isLocal: false, isDefinition: false, scopeLine: 310, flags: DIFlagPrototyped, isOptimized: false)
!929 = !DISubroutineType(types: !930)
!930 = !{null, !921, !53}
!931 = !DISubprogram(name: "ap_uint", scope: !525, file: !12, line: 311, type: !932, isLocal: false, isDefinition: false, scopeLine: 311, flags: DIFlagPrototyped, isOptimized: false)
!932 = !DISubroutineType(types: !933)
!933 = !{null, !921, !58}
!934 = !DISubprogram(name: "ap_uint", scope: !525, file: !12, line: 312, type: !935, isLocal: false, isDefinition: false, scopeLine: 312, flags: DIFlagPrototyped, isOptimized: false)
!935 = !DISubroutineType(types: !936)
!936 = !{null, !921, !63}
!937 = !DISubprogram(name: "ap_uint", scope: !525, file: !12, line: 313, type: !938, isLocal: false, isDefinition: false, scopeLine: 313, flags: DIFlagPrototyped, isOptimized: false)
!938 = !DISubroutineType(types: !939)
!939 = !{null, !921, !68}
!940 = !DISubprogram(name: "ap_uint", scope: !525, file: !12, line: 314, type: !941, isLocal: false, isDefinition: false, scopeLine: 314, flags: DIFlagPrototyped, isOptimized: false)
!941 = !DISubroutineType(types: !942)
!942 = !{null, !921, !73}
!943 = !DISubprogram(name: "ap_uint", scope: !525, file: !12, line: 315, type: !944, isLocal: false, isDefinition: false, scopeLine: 315, flags: DIFlagPrototyped, isOptimized: false)
!944 = !DISubroutineType(types: !945)
!945 = !{null, !921, !30}
!946 = !DISubprogram(name: "ap_uint", scope: !525, file: !12, line: 316, type: !947, isLocal: false, isDefinition: false, scopeLine: 316, flags: DIFlagPrototyped, isOptimized: false)
!947 = !DISubroutineType(types: !948)
!948 = !{null, !921, !81}
!949 = !DISubprogram(name: "ap_uint", scope: !525, file: !12, line: 317, type: !950, isLocal: false, isDefinition: false, scopeLine: 317, flags: DIFlagPrototyped, isOptimized: false)
!950 = !DISubroutineType(types: !951)
!951 = !{null, !921, !86}
!952 = !DISubprogram(name: "ap_uint", scope: !525, file: !12, line: 318, type: !953, isLocal: false, isDefinition: false, scopeLine: 318, flags: DIFlagPrototyped, isOptimized: false)
!953 = !DISubroutineType(types: !954)
!954 = !{null, !921, !91}
!955 = !DISubprogram(name: "ap_uint", scope: !525, file: !12, line: 319, type: !956, isLocal: false, isDefinition: false, scopeLine: 319, flags: DIFlagPrototyped, isOptimized: false)
!956 = !DISubroutineType(types: !957)
!957 = !{null, !921, !96}
!958 = !DISubprogram(name: "ap_uint", scope: !525, file: !12, line: 320, type: !959, isLocal: false, isDefinition: false, scopeLine: 320, flags: DIFlagPrototyped, isOptimized: false)
!959 = !DISubroutineType(types: !960)
!960 = !{null, !921, !103}
!961 = !DISubprogram(name: "ap_uint", scope: !525, file: !12, line: 322, type: !962, isLocal: false, isDefinition: false, scopeLine: 322, flags: DIFlagPrototyped, isOptimized: false)
!962 = !DISubroutineType(types: !963)
!963 = !{null, !921, !117}
!964 = !DISubprogram(name: "ap_uint", scope: !525, file: !12, line: 323, type: !965, isLocal: false, isDefinition: false, scopeLine: 323, flags: DIFlagPrototyped, isOptimized: false)
!965 = !DISubroutineType(types: !966)
!966 = !{null, !921, !113}
!967 = !DISubprogram(name: "ap_uint", scope: !525, file: !12, line: 324, type: !968, isLocal: false, isDefinition: false, scopeLine: 324, flags: DIFlagPrototyped, isOptimized: false)
!968 = !DISubroutineType(types: !969)
!969 = !{null, !921, !108}
!970 = !DISubprogram(name: "ap_uint", scope: !525, file: !12, line: 327, type: !971, isLocal: false, isDefinition: false, scopeLine: 327, flags: DIFlagPrototyped, isOptimized: false)
!971 = !DISubroutineType(types: !972)
!972 = !{null, !921, !121}
!973 = !DISubprogram(name: "ap_uint", scope: !525, file: !12, line: 329, type: !974, isLocal: false, isDefinition: false, scopeLine: 329, flags: DIFlagPrototyped, isOptimized: false)
!974 = !DISubroutineType(types: !975)
!975 = !{null, !921, !121, !58}
!976 = !DISubprogram(name: "operator=", linkageName: "_ZN7ap_uintILi192EEaSERKS0_", scope: !525, file: !12, line: 334, type: !977, isLocal: false, isDefinition: false, scopeLine: 334, flags: DIFlagPrototyped, isOptimized: false)
!977 = !DISubroutineType(types: !978)
!978 = !{!979, !921, !980}
!979 = !DIDerivedType(tag: DW_TAG_reference_type, baseType: !525, size: 64)
!980 = !DIDerivedType(tag: DW_TAG_reference_type, baseType: !981, size: 64)
!981 = !DIDerivedType(tag: DW_TAG_const_type, baseType: !525)
!982 = !DISubprogram(name: "operator=", linkageName: "_ZN7ap_uintILi192EEaSERVKS0_", scope: !525, file: !12, line: 337, type: !983, isLocal: false, isDefinition: false, scopeLine: 337, flags: DIFlagPrototyped, isOptimized: false)
!983 = !DISubroutineType(types: !984)
!984 = !{!979, !921, !985}
!985 = !DIDerivedType(tag: DW_TAG_reference_type, baseType: !986, size: 64)
!986 = !DIDerivedType(tag: DW_TAG_const_type, baseType: !987)
!987 = !DIDerivedType(tag: DW_TAG_volatile_type, baseType: !525)
!988 = !DISubprogram(name: "operator=", linkageName: "_ZNV7ap_uintILi192EEaSERKS0_", scope: !525, file: !12, line: 343, type: !989, isLocal: false, isDefinition: false, scopeLine: 343, flags: DIFlagPrototyped, isOptimized: false)
!989 = !DISubroutineType(types: !990)
!990 = !{null, !991, !980}
!991 = !DIDerivedType(tag: DW_TAG_pointer_type, baseType: !987, size: 64, flags: DIFlagArtificial | DIFlagObjectPointer)
!992 = !DISubprogram(name: "operator=", linkageName: "_ZNV7ap_uintILi192EEaSERVKS0_", scope: !525, file: !12, line: 347, type: !993, isLocal: false, isDefinition: false, scopeLine: 347, flags: DIFlagPrototyped, isOptimized: false)
!993 = !DISubroutineType(types: !994)
!994 = !{null, !991, !985}
!995 = !{!889}
!996 = distinct !DICompileUnit(language: DW_LANG_C_plus_plus, file: !997, producer: "clang version 7.0.0 ", isOptimized: true, runtimeVersion: 0, emissionKind: FullDebug, enums: !998, retainedTypes: !2159, globals: !3860, imports: !3880)
!997 = !DIFile(filename: "/afs/hep.wisc.edu/user/mbileska/WOMBATv2HLS/duo/testMisc20/vivado_hls_duo/WOMBAT_prj/solution1/.autopilot/db/algo_unpacked.pp.0.cpp", directory: "/afs/hep.wisc.edu/home/mbileska/WOMBATv2HLS/duo/testMisc20/vivado_hls_duo")
!998 = !{!999, !1024, !1033, !1044, !1050, !2143, !2152}
!999 = distinct !DICompositeType(tag: DW_TAG_enumeration_type, name: "_Ios_Fmtflags", scope: !1001, file: !1000, line: 57, size: 32, elements: !1002, identifier: "_ZTSSt13_Ios_Fmtflags")
!1000 = !DIFile(filename: "/opt/Xilinx/Vitis_HLS/2021.1/tps/lnx64/gcc-6.2.0/lib/gcc/x86_64-pc-linux-gnu/6.2.0/../../../../include/c++/6.2.0/bits/ios_base.h", directory: "/afs/hep.wisc.edu/home/mbileska/WOMBATv2HLS/duo/testMisc20/vivado_hls_duo")
!1001 = !DINamespace(name: "std", scope: null)
!1002 = !{!1003, !1004, !1005, !1006, !1007, !1008, !1009, !1010, !1011, !1012, !1013, !1014, !1015, !1016, !1017, !1018, !1019, !1020, !1021, !1022, !1023}
!1003 = !DIEnumerator(name: "_S_boolalpha", value: 1)
!1004 = !DIEnumerator(name: "_S_dec", value: 2)
!1005 = !DIEnumerator(name: "_S_fixed", value: 4)
!1006 = !DIEnumerator(name: "_S_hex", value: 8)
!1007 = !DIEnumerator(name: "_S_internal", value: 16)
!1008 = !DIEnumerator(name: "_S_left", value: 32)
!1009 = !DIEnumerator(name: "_S_oct", value: 64)
!1010 = !DIEnumerator(name: "_S_right", value: 128)
!1011 = !DIEnumerator(name: "_S_scientific", value: 256)
!1012 = !DIEnumerator(name: "_S_showbase", value: 512)
!1013 = !DIEnumerator(name: "_S_showpoint", value: 1024)
!1014 = !DIEnumerator(name: "_S_showpos", value: 2048)
!1015 = !DIEnumerator(name: "_S_skipws", value: 4096)
!1016 = !DIEnumerator(name: "_S_unitbuf", value: 8192)
!1017 = !DIEnumerator(name: "_S_uppercase", value: 16384)
!1018 = !DIEnumerator(name: "_S_adjustfield", value: 176)
!1019 = !DIEnumerator(name: "_S_basefield", value: 74)
!1020 = !DIEnumerator(name: "_S_floatfield", value: 260)
!1021 = !DIEnumerator(name: "_S_ios_fmtflags_end", value: 65536)
!1022 = !DIEnumerator(name: "_S_ios_fmtflags_max", value: 2147483647)
!1023 = !DIEnumerator(name: "_S_ios_fmtflags_min", value: -2147483648)
!1024 = distinct !DICompositeType(tag: DW_TAG_enumeration_type, name: "_Ios_Iostate", scope: !1001, file: !1000, line: 153, size: 32, elements: !1025, identifier: "_ZTSSt12_Ios_Iostate")
!1025 = !{!1026, !1027, !1028, !1029, !1030, !1031, !1032}
!1026 = !DIEnumerator(name: "_S_goodbit", value: 0)
!1027 = !DIEnumerator(name: "_S_badbit", value: 1)
!1028 = !DIEnumerator(name: "_S_eofbit", value: 2)
!1029 = !DIEnumerator(name: "_S_failbit", value: 4)
!1030 = !DIEnumerator(name: "_S_ios_iostate_end", value: 65536)
!1031 = !DIEnumerator(name: "_S_ios_iostate_max", value: 2147483647)
!1032 = !DIEnumerator(name: "_S_ios_iostate_min", value: -2147483648)
!1033 = distinct !DICompositeType(tag: DW_TAG_enumeration_type, name: "_Ios_Openmode", scope: !1001, file: !1000, line: 111, size: 32, elements: !1034, identifier: "_ZTSSt13_Ios_Openmode")
!1034 = !{!1035, !1036, !1037, !1038, !1039, !1040, !1041, !1042, !1043}
!1035 = !DIEnumerator(name: "_S_app", value: 1)
!1036 = !DIEnumerator(name: "_S_ate", value: 2)
!1037 = !DIEnumerator(name: "_S_bin", value: 4)
!1038 = !DIEnumerator(name: "_S_in", value: 8)
!1039 = !DIEnumerator(name: "_S_out", value: 16)
!1040 = !DIEnumerator(name: "_S_trunc", value: 32)
!1041 = !DIEnumerator(name: "_S_ios_openmode_end", value: 65536)
!1042 = !DIEnumerator(name: "_S_ios_openmode_max", value: 2147483647)
!1043 = !DIEnumerator(name: "_S_ios_openmode_min", value: -2147483648)
!1044 = distinct !DICompositeType(tag: DW_TAG_enumeration_type, name: "_Ios_Seekdir", scope: !1001, file: !1000, line: 193, size: 32, elements: !1045, identifier: "_ZTSSt12_Ios_Seekdir")
!1045 = !{!1046, !1047, !1048, !1049}
!1046 = !DIEnumerator(name: "_S_beg", value: 0)
!1047 = !DIEnumerator(name: "_S_cur", value: 1)
!1048 = !DIEnumerator(name: "_S_end", value: 2)
!1049 = !DIEnumerator(name: "_S_ios_seekdir_end", value: 65536)
!1050 = distinct !DICompositeType(tag: DW_TAG_enumeration_type, name: "event", scope: !1051, file: !1000, line: 487, size: 32, elements: !2139, identifier: "_ZTSNSt8ios_base5eventE")
!1051 = distinct !DICompositeType(tag: DW_TAG_class_type, name: "ios_base", scope: !1001, file: !1000, line: 228, size: 1728, flags: DIFlagTypePassByReference, elements: !1052, vtableHolder: !1051, identifier: "_ZTSSt8ios_base")
!1052 = !{!1053, !1058, !1061, !1062, !1063, !1064, !1065, !1066, !1067, !1068, !1069, !1070, !1071, !1072, !1073, !1074, !1075, !1076, !1077, !1078, !1081, !1082, !1083, !1084, !1087, !1088, !1089, !1090, !1091, !1092, !1095, !1096, !1097, !1102, !1103, !1104, !1105, !1106, !1131, !1141, !1145, !1146, !1148, !2067, !2071, !2074, !2077, !2081, !2082, !2087, !2090, !2091, !2094, !2097, !2100, !2103, !2104, !2105, !2108, !2111, !2114, !2117, !2118, !2122, !2126, !2127, !2128, !2132, !2135, !2138}
!1053 = !DIDerivedType(tag: DW_TAG_member, name: "_vptr$ios_base", scope: !1000, file: !1000, baseType: !1054, size: 64, flags: DIFlagArtificial)
!1054 = !DIDerivedType(tag: DW_TAG_pointer_type, baseType: !1055, size: 64)
!1055 = !DIDerivedType(tag: DW_TAG_pointer_type, name: "__vtbl_ptr_type", baseType: !1056, size: 64)
!1056 = !DISubroutineType(types: !1057)
!1057 = !{!30}
!1058 = !DIDerivedType(tag: DW_TAG_member, name: "boolalpha", scope: !1051, file: !1000, line: 326, baseType: !1059, flags: DIFlagPublic | DIFlagStaticMember, extraData: i32 1)
!1059 = !DIDerivedType(tag: DW_TAG_const_type, baseType: !1060)
!1060 = !DIDerivedType(tag: DW_TAG_typedef, name: "fmtflags", scope: !1051, file: !1000, line: 323, baseType: !999)
!1061 = !DIDerivedType(tag: DW_TAG_member, name: "dec", scope: !1051, file: !1000, line: 329, baseType: !1059, flags: DIFlagPublic | DIFlagStaticMember, extraData: i32 2)
!1062 = !DIDerivedType(tag: DW_TAG_member, name: "fixed", scope: !1051, file: !1000, line: 332, baseType: !1059, flags: DIFlagPublic | DIFlagStaticMember, extraData: i32 4)
!1063 = !DIDerivedType(tag: DW_TAG_member, name: "hex", scope: !1051, file: !1000, line: 335, baseType: !1059, flags: DIFlagPublic | DIFlagStaticMember, extraData: i32 8)
!1064 = !DIDerivedType(tag: DW_TAG_member, name: "internal", scope: !1051, file: !1000, line: 340, baseType: !1059, flags: DIFlagPublic | DIFlagStaticMember, extraData: i32 16)
!1065 = !DIDerivedType(tag: DW_TAG_member, name: "left", scope: !1051, file: !1000, line: 344, baseType: !1059, flags: DIFlagPublic | DIFlagStaticMember, extraData: i32 32)
!1066 = !DIDerivedType(tag: DW_TAG_member, name: "oct", scope: !1051, file: !1000, line: 347, baseType: !1059, flags: DIFlagPublic | DIFlagStaticMember, extraData: i32 64)
!1067 = !DIDerivedType(tag: DW_TAG_member, name: "right", scope: !1051, file: !1000, line: 351, baseType: !1059, flags: DIFlagPublic | DIFlagStaticMember, extraData: i32 128)
!1068 = !DIDerivedType(tag: DW_TAG_member, name: "scientific", scope: !1051, file: !1000, line: 354, baseType: !1059, flags: DIFlagPublic | DIFlagStaticMember, extraData: i32 256)
!1069 = !DIDerivedType(tag: DW_TAG_member, name: "showbase", scope: !1051, file: !1000, line: 358, baseType: !1059, flags: DIFlagPublic | DIFlagStaticMember, extraData: i32 512)
!1070 = !DIDerivedType(tag: DW_TAG_member, name: "showpoint", scope: !1051, file: !1000, line: 362, baseType: !1059, flags: DIFlagPublic | DIFlagStaticMember, extraData: i32 1024)
!1071 = !DIDerivedType(tag: DW_TAG_member, name: "showpos", scope: !1051, file: !1000, line: 365, baseType: !1059, flags: DIFlagPublic | DIFlagStaticMember, extraData: i32 2048)
!1072 = !DIDerivedType(tag: DW_TAG_member, name: "skipws", scope: !1051, file: !1000, line: 368, baseType: !1059, flags: DIFlagPublic | DIFlagStaticMember, extraData: i32 4096)
!1073 = !DIDerivedType(tag: DW_TAG_member, name: "unitbuf", scope: !1051, file: !1000, line: 371, baseType: !1059, flags: DIFlagPublic | DIFlagStaticMember, extraData: i32 8192)
!1074 = !DIDerivedType(tag: DW_TAG_member, name: "uppercase", scope: !1051, file: !1000, line: 375, baseType: !1059, flags: DIFlagPublic | DIFlagStaticMember, extraData: i32 16384)
!1075 = !DIDerivedType(tag: DW_TAG_member, name: "adjustfield", scope: !1051, file: !1000, line: 378, baseType: !1059, flags: DIFlagPublic | DIFlagStaticMember, extraData: i32 176)
!1076 = !DIDerivedType(tag: DW_TAG_member, name: "basefield", scope: !1051, file: !1000, line: 381, baseType: !1059, flags: DIFlagPublic | DIFlagStaticMember, extraData: i32 74)
!1077 = !DIDerivedType(tag: DW_TAG_member, name: "floatfield", scope: !1051, file: !1000, line: 384, baseType: !1059, flags: DIFlagPublic | DIFlagStaticMember, extraData: i32 260)
!1078 = !DIDerivedType(tag: DW_TAG_member, name: "badbit", scope: !1051, file: !1000, line: 402, baseType: !1079, flags: DIFlagPublic | DIFlagStaticMember, extraData: i32 1)
!1079 = !DIDerivedType(tag: DW_TAG_const_type, baseType: !1080)
!1080 = !DIDerivedType(tag: DW_TAG_typedef, name: "iostate", scope: !1051, file: !1000, line: 398, baseType: !1024)
!1081 = !DIDerivedType(tag: DW_TAG_member, name: "eofbit", scope: !1051, file: !1000, line: 405, baseType: !1079, flags: DIFlagPublic | DIFlagStaticMember, extraData: i32 2)
!1082 = !DIDerivedType(tag: DW_TAG_member, name: "failbit", scope: !1051, file: !1000, line: 410, baseType: !1079, flags: DIFlagPublic | DIFlagStaticMember, extraData: i32 4)
!1083 = !DIDerivedType(tag: DW_TAG_member, name: "goodbit", scope: !1051, file: !1000, line: 413, baseType: !1079, flags: DIFlagPublic | DIFlagStaticMember, extraData: i32 0)
!1084 = !DIDerivedType(tag: DW_TAG_member, name: "app", scope: !1051, file: !1000, line: 432, baseType: !1085, flags: DIFlagPublic | DIFlagStaticMember, extraData: i32 1)
!1085 = !DIDerivedType(tag: DW_TAG_const_type, baseType: !1086)
!1086 = !DIDerivedType(tag: DW_TAG_typedef, name: "openmode", scope: !1051, file: !1000, line: 429, baseType: !1033)
!1087 = !DIDerivedType(tag: DW_TAG_member, name: "ate", scope: !1051, file: !1000, line: 435, baseType: !1085, flags: DIFlagPublic | DIFlagStaticMember, extraData: i32 2)
!1088 = !DIDerivedType(tag: DW_TAG_member, name: "binary", scope: !1051, file: !1000, line: 440, baseType: !1085, flags: DIFlagPublic | DIFlagStaticMember, extraData: i32 4)
!1089 = !DIDerivedType(tag: DW_TAG_member, name: "in", scope: !1051, file: !1000, line: 443, baseType: !1085, flags: DIFlagPublic | DIFlagStaticMember, extraData: i32 8)
!1090 = !DIDerivedType(tag: DW_TAG_member, name: "out", scope: !1051, file: !1000, line: 446, baseType: !1085, flags: DIFlagPublic | DIFlagStaticMember, extraData: i32 16)
!1091 = !DIDerivedType(tag: DW_TAG_member, name: "trunc", scope: !1051, file: !1000, line: 449, baseType: !1085, flags: DIFlagPublic | DIFlagStaticMember, extraData: i32 32)
!1092 = !DIDerivedType(tag: DW_TAG_member, name: "beg", scope: !1051, file: !1000, line: 464, baseType: !1093, flags: DIFlagPublic | DIFlagStaticMember, extraData: i32 0)
!1093 = !DIDerivedType(tag: DW_TAG_const_type, baseType: !1094)
!1094 = !DIDerivedType(tag: DW_TAG_typedef, name: "seekdir", scope: !1051, file: !1000, line: 461, baseType: !1044)
!1095 = !DIDerivedType(tag: DW_TAG_member, name: "cur", scope: !1051, file: !1000, line: 467, baseType: !1093, flags: DIFlagPublic | DIFlagStaticMember, extraData: i32 1)
!1096 = !DIDerivedType(tag: DW_TAG_member, name: "end", scope: !1051, file: !1000, line: 470, baseType: !1093, flags: DIFlagPublic | DIFlagStaticMember, extraData: i32 2)
!1097 = !DIDerivedType(tag: DW_TAG_member, name: "_M_precision", scope: !1051, file: !1000, line: 520, baseType: !1098, size: 64, offset: 64, flags: DIFlagProtected)
!1098 = !DIDerivedType(tag: DW_TAG_typedef, name: "streamsize", scope: !1001, file: !1099, line: 98, baseType: !1100)
!1099 = !DIFile(filename: "/opt/Xilinx/Vitis_HLS/2021.1/tps/lnx64/gcc-6.2.0/lib/gcc/x86_64-pc-linux-gnu/6.2.0/../../../../include/c++/6.2.0/bits/postypes.h", directory: "/afs/hep.wisc.edu/home/mbileska/WOMBATv2HLS/duo/testMisc20/vivado_hls_duo")
!1100 = !DIDerivedType(tag: DW_TAG_typedef, name: "ptrdiff_t", scope: !1001, file: !1101, line: 199, baseType: !86)
!1101 = !DIFile(filename: "/opt/Xilinx/Vitis_HLS/2021.1/tps/lnx64/gcc-6.2.0/lib/gcc/x86_64-pc-linux-gnu/6.2.0/../../../../include/c++/6.2.0/x86_64-pc-linux-gnu/bits/c++config.h", directory: "/afs/hep.wisc.edu/home/mbileska/WOMBATv2HLS/duo/testMisc20/vivado_hls_duo")
!1102 = !DIDerivedType(tag: DW_TAG_member, name: "_M_width", scope: !1051, file: !1000, line: 521, baseType: !1098, size: 64, offset: 128, flags: DIFlagProtected)
!1103 = !DIDerivedType(tag: DW_TAG_member, name: "_M_flags", scope: !1051, file: !1000, line: 522, baseType: !1060, size: 32, offset: 192, flags: DIFlagProtected)
!1104 = !DIDerivedType(tag: DW_TAG_member, name: "_M_exception", scope: !1051, file: !1000, line: 523, baseType: !1080, size: 32, offset: 224, flags: DIFlagProtected)
!1105 = !DIDerivedType(tag: DW_TAG_member, name: "_M_streambuf_state", scope: !1051, file: !1000, line: 524, baseType: !1080, size: 32, offset: 256, flags: DIFlagProtected)
!1106 = !DIDerivedType(tag: DW_TAG_member, name: "_M_callbacks", scope: !1051, file: !1000, line: 558, baseType: !1107, size: 64, offset: 320, flags: DIFlagProtected)
!1107 = !DIDerivedType(tag: DW_TAG_pointer_type, baseType: !1108, size: 64)
!1108 = distinct !DICompositeType(tag: DW_TAG_structure_type, name: "_Callback_list", scope: !1051, file: !1000, line: 528, size: 192, flags: DIFlagTypePassByValue, elements: !1109, identifier: "_ZTSNSt8ios_base14_Callback_listE")
!1109 = !{!1110, !1111, !1117, !1118, !1121, !1125, !1128}
!1110 = !DIDerivedType(tag: DW_TAG_member, name: "_M_next", scope: !1108, file: !1000, line: 531, baseType: !1107, size: 64)
!1111 = !DIDerivedType(tag: DW_TAG_member, name: "_M_fn", scope: !1108, file: !1000, line: 532, baseType: !1112, size: 64, offset: 64)
!1112 = !DIDerivedType(tag: DW_TAG_typedef, name: "event_callback", scope: !1051, file: !1000, line: 504, baseType: !1113)
!1113 = !DIDerivedType(tag: DW_TAG_pointer_type, baseType: !1114, size: 64)
!1114 = !DISubroutineType(types: !1115)
!1115 = !{null, !1050, !1116, !30}
!1116 = !DIDerivedType(tag: DW_TAG_reference_type, baseType: !1051, size: 64)
!1117 = !DIDerivedType(tag: DW_TAG_member, name: "_M_index", scope: !1108, file: !1000, line: 533, baseType: !30, size: 32, offset: 128)
!1118 = !DIDerivedType(tag: DW_TAG_member, name: "_M_refcount", scope: !1108, file: !1000, line: 534, baseType: !1119, size: 32, offset: 160)
!1119 = !DIDerivedType(tag: DW_TAG_typedef, name: "_Atomic_word", file: !1120, line: 32, baseType: !30)
!1120 = !DIFile(filename: "/opt/Xilinx/Vitis_HLS/2021.1/tps/lnx64/gcc-6.2.0/lib/gcc/x86_64-pc-linux-gnu/6.2.0/../../../../include/c++/6.2.0/x86_64-pc-linux-gnu/bits/atomic_word.h", directory: "/afs/hep.wisc.edu/home/mbileska/WOMBATv2HLS/duo/testMisc20/vivado_hls_duo")
!1121 = !DISubprogram(name: "_Callback_list", scope: !1108, file: !1000, line: 536, type: !1122, isLocal: false, isDefinition: false, scopeLine: 536, flags: DIFlagPrototyped, isOptimized: false)
!1122 = !DISubroutineType(types: !1123)
!1123 = !{null, !1124, !1112, !30, !1107}
!1124 = !DIDerivedType(tag: DW_TAG_pointer_type, baseType: !1108, size: 64, flags: DIFlagArtificial | DIFlagObjectPointer)
!1125 = !DISubprogram(name: "_M_add_reference", linkageName: "_ZNSt8ios_base14_Callback_list16_M_add_referenceEv", scope: !1108, file: !1000, line: 541, type: !1126, isLocal: false, isDefinition: false, scopeLine: 541, flags: DIFlagPrototyped, isOptimized: false)
!1126 = !DISubroutineType(types: !1127)
!1127 = !{null, !1124}
!1128 = !DISubprogram(name: "_M_remove_reference", linkageName: "_ZNSt8ios_base14_Callback_list19_M_remove_referenceEv", scope: !1108, file: !1000, line: 545, type: !1129, isLocal: false, isDefinition: false, scopeLine: 545, flags: DIFlagPrototyped, isOptimized: false)
!1129 = !DISubroutineType(types: !1130)
!1130 = !{!30, !1124}
!1131 = !DIDerivedType(tag: DW_TAG_member, name: "_M_word_zero", scope: !1051, file: !1000, line: 575, baseType: !1132, size: 128, offset: 384, flags: DIFlagProtected)
!1132 = distinct !DICompositeType(tag: DW_TAG_structure_type, name: "_Words", scope: !1051, file: !1000, line: 567, size: 128, flags: DIFlagTypePassByValue, elements: !1133, identifier: "_ZTSNSt8ios_base6_WordsE")
!1133 = !{!1134, !1136, !1137}
!1134 = !DIDerivedType(tag: DW_TAG_member, name: "_M_pword", scope: !1132, file: !1000, line: 569, baseType: !1135, size: 64)
!1135 = !DIDerivedType(tag: DW_TAG_pointer_type, baseType: null, size: 64)
!1136 = !DIDerivedType(tag: DW_TAG_member, name: "_M_iword", scope: !1132, file: !1000, line: 570, baseType: !86, size: 64, offset: 64)
!1137 = !DISubprogram(name: "_Words", scope: !1132, file: !1000, line: 571, type: !1138, isLocal: false, isDefinition: false, scopeLine: 571, flags: DIFlagPrototyped, isOptimized: false)
!1138 = !DISubroutineType(types: !1139)
!1139 = !{null, !1140}
!1140 = !DIDerivedType(tag: DW_TAG_pointer_type, baseType: !1132, size: 64, flags: DIFlagArtificial | DIFlagObjectPointer)
!1141 = !DIDerivedType(tag: DW_TAG_member, name: "_M_local_word", scope: !1051, file: !1000, line: 580, baseType: !1142, size: 1024, offset: 512, flags: DIFlagProtected)
!1142 = !DICompositeType(tag: DW_TAG_array_type, baseType: !1132, size: 1024, elements: !1143)
!1143 = !{!1144}
!1144 = !DISubrange(count: 8)
!1145 = !DIDerivedType(tag: DW_TAG_member, name: "_M_word_size", scope: !1051, file: !1000, line: 583, baseType: !30, size: 32, offset: 1536, flags: DIFlagProtected)
!1146 = !DIDerivedType(tag: DW_TAG_member, name: "_M_word", scope: !1051, file: !1000, line: 584, baseType: !1147, size: 64, offset: 1600, flags: DIFlagProtected)
!1147 = !DIDerivedType(tag: DW_TAG_pointer_type, baseType: !1132, size: 64)
!1148 = !DIDerivedType(tag: DW_TAG_member, name: "_M_ios_locale", scope: !1051, file: !1000, line: 590, baseType: !1149, size: 64, offset: 1664, flags: DIFlagProtected)
!1149 = distinct !DICompositeType(tag: DW_TAG_class_type, name: "locale", scope: !1001, file: !1150, line: 62, size: 64, flags: DIFlagTypePassByReference, elements: !1151, identifier: "_ZTSSt6locale")
!1150 = !DIFile(filename: "/opt/Xilinx/Vitis_HLS/2021.1/tps/lnx64/gcc-6.2.0/lib/gcc/x86_64-pc-linux-gnu/6.2.0/../../../../include/c++/6.2.0/bits/locale_classes.h", directory: "/afs/hep.wisc.edu/home/mbileska/WOMBATv2HLS/duo/testMisc20/vivado_hls_duo")
!1151 = !{!1152, !1155, !1156, !1157, !1158, !1159, !1160, !1161, !1162, !1323, !1324, !1325, !1329, !1330, !1331, !1335, !1340, !1343, !1346, !2034, !2037, !2040, !2041, !2044, !2048, !2051, !2052, !2055, !2058, !2061, !2062, !2063, !2066}
!1152 = !DIDerivedType(tag: DW_TAG_member, name: "none", scope: !1149, file: !1150, line: 98, baseType: !1153, flags: DIFlagPublic | DIFlagStaticMember, extraData: i32 0)
!1153 = !DIDerivedType(tag: DW_TAG_const_type, baseType: !1154)
!1154 = !DIDerivedType(tag: DW_TAG_typedef, name: "category", scope: !1149, file: !1150, line: 67, baseType: !30)
!1155 = !DIDerivedType(tag: DW_TAG_member, name: "ctype", scope: !1149, file: !1150, line: 99, baseType: !1153, flags: DIFlagPublic | DIFlagStaticMember, extraData: i32 1)
!1156 = !DIDerivedType(tag: DW_TAG_member, name: "numeric", scope: !1149, file: !1150, line: 100, baseType: !1153, flags: DIFlagPublic | DIFlagStaticMember, extraData: i32 2)
!1157 = !DIDerivedType(tag: DW_TAG_member, name: "collate", scope: !1149, file: !1150, line: 101, baseType: !1153, flags: DIFlagPublic | DIFlagStaticMember, extraData: i32 4)
!1158 = !DIDerivedType(tag: DW_TAG_member, name: "time", scope: !1149, file: !1150, line: 102, baseType: !1153, flags: DIFlagPublic | DIFlagStaticMember, extraData: i32 8)
!1159 = !DIDerivedType(tag: DW_TAG_member, name: "monetary", scope: !1149, file: !1150, line: 103, baseType: !1153, flags: DIFlagPublic | DIFlagStaticMember, extraData: i32 16)
!1160 = !DIDerivedType(tag: DW_TAG_member, name: "messages", scope: !1149, file: !1150, line: 104, baseType: !1153, flags: DIFlagPublic | DIFlagStaticMember, extraData: i32 32)
!1161 = !DIDerivedType(tag: DW_TAG_member, name: "all", scope: !1149, file: !1150, line: 105, baseType: !1153, flags: DIFlagPublic | DIFlagStaticMember, extraData: i32 63)
!1162 = !DIDerivedType(tag: DW_TAG_member, name: "_M_impl", scope: !1149, file: !1150, line: 309, baseType: !1163, size: 64)
!1163 = !DIDerivedType(tag: DW_TAG_pointer_type, baseType: !1164, size: 64)
!1164 = distinct !DICompositeType(tag: DW_TAG_class_type, name: "_Impl", scope: !1149, file: !1150, line: 521, size: 320, flags: DIFlagTypePassByReference, elements: !1165, identifier: "_ZTSNSt6locale5_ImplE")
!1165 = !{!1166, !1167, !1257, !1258, !1259, !1261, !1266, !1267, !1268, !1269, !1270, !1271, !1275, !1279, !1280, !1285, !1288, !1291, !1292, !1295, !1296, !1299, !1303, !1306, !1309, !1312, !1315, !1320}
!1166 = !DIDerivedType(tag: DW_TAG_member, name: "_M_refcount", scope: !1164, file: !1150, line: 541, baseType: !1119, size: 32)
!1167 = !DIDerivedType(tag: DW_TAG_member, name: "_M_facets", scope: !1164, file: !1150, line: 542, baseType: !1168, size: 64, offset: 64)
!1168 = !DIDerivedType(tag: DW_TAG_pointer_type, baseType: !1169, size: 64)
!1169 = !DIDerivedType(tag: DW_TAG_pointer_type, baseType: !1170, size: 64)
!1170 = !DIDerivedType(tag: DW_TAG_const_type, baseType: !1171)
!1171 = distinct !DICompositeType(tag: DW_TAG_class_type, name: "facet", scope: !1149, file: !1150, line: 371, size: 128, flags: DIFlagTypePassByReference, elements: !1172, vtableHolder: !1171, identifier: "_ZTSNSt6locale5facetE")
!1172 = !{!1173, !1174, !1175, !1182, !1186, !1191, !1194, !1199, !1202, !1206, !1209, !1212, !1215, !1218, !1221, !1225, !1229, !1233, !1234, !1256}
!1173 = !DIDerivedType(tag: DW_TAG_member, name: "_vptr$facet", scope: !1150, file: !1150, baseType: !1054, size: 64, flags: DIFlagArtificial)
!1174 = !DIDerivedType(tag: DW_TAG_member, name: "_M_refcount", scope: !1171, file: !1150, line: 377, baseType: !1119, size: 32, offset: 64)
!1175 = !DIDerivedType(tag: DW_TAG_member, name: "_S_c_locale", scope: !1171, file: !1150, line: 380, baseType: !1176, flags: DIFlagStaticMember)
!1176 = !DIDerivedType(tag: DW_TAG_typedef, name: "__c_locale", scope: !1001, file: !1177, line: 62, baseType: !1178)
!1177 = !DIFile(filename: "/opt/Xilinx/Vitis_HLS/2021.1/tps/lnx64/gcc-6.2.0/lib/gcc/x86_64-pc-linux-gnu/6.2.0/../../../../include/c++/6.2.0/x86_64-pc-linux-gnu/bits/c++locale.h", directory: "/afs/hep.wisc.edu/home/mbileska/WOMBATv2HLS/duo/testMisc20/vivado_hls_duo")
!1178 = !DIDerivedType(tag: DW_TAG_typedef, name: "__locale_t", file: !1179, line: 42, baseType: !1180)
!1179 = !DIFile(filename: "/usr/include/bits/types/__locale_t.h", directory: "/afs/hep.wisc.edu/home/mbileska/WOMBATv2HLS/duo/testMisc20/vivado_hls_duo")
!1180 = !DIDerivedType(tag: DW_TAG_pointer_type, baseType: !1181, size: 64)
!1181 = distinct !DICompositeType(tag: DW_TAG_structure_type, name: "__locale_struct", file: !1179, line: 28, size: 1856, align: 64, flags: DIFlagFwdDecl, identifier: "_ZTS15__locale_struct")
!1182 = !DIDerivedType(tag: DW_TAG_member, name: "_S_c_name", scope: !1171, file: !1150, line: 383, baseType: !1183, flags: DIFlagStaticMember)
!1183 = !DICompositeType(tag: DW_TAG_array_type, baseType: !52, size: 16, elements: !1184)
!1184 = !{!1185}
!1185 = !DISubrange(count: 2)
!1186 = !DIDerivedType(tag: DW_TAG_member, name: "_S_once", scope: !1171, file: !1150, line: 386, baseType: !1187, flags: DIFlagStaticMember)
!1187 = !DIDerivedType(tag: DW_TAG_typedef, name: "__gthread_once_t", file: !1188, line: 49, baseType: !1189)
!1188 = !DIFile(filename: "/opt/Xilinx/Vitis_HLS/2021.1/tps/lnx64/gcc-6.2.0/lib/gcc/x86_64-pc-linux-gnu/6.2.0/../../../../include/c++/6.2.0/x86_64-pc-linux-gnu/bits/gthr-default.h", directory: "/afs/hep.wisc.edu/home/mbileska/WOMBATv2HLS/duo/testMisc20/vivado_hls_duo")
!1189 = !DIDerivedType(tag: DW_TAG_typedef, name: "pthread_once_t", file: !1190, line: 53, baseType: !30)
!1190 = !DIFile(filename: "/usr/include/bits/pthreadtypes.h", directory: "/afs/hep.wisc.edu/home/mbileska/WOMBATv2HLS/duo/testMisc20/vivado_hls_duo")
!1191 = !DISubprogram(name: "_S_initialize_once", linkageName: "_ZNSt6locale5facet18_S_initialize_onceEv", scope: !1171, file: !1150, line: 390, type: !1192, isLocal: false, isDefinition: false, scopeLine: 390, flags: DIFlagPrototyped | DIFlagStaticMember, isOptimized: false)
!1192 = !DISubroutineType(types: !1193)
!1193 = !{null}
!1194 = !DISubprogram(name: "facet", scope: !1171, file: !1150, line: 403, type: !1195, isLocal: false, isDefinition: false, scopeLine: 403, flags: DIFlagProtected | DIFlagExplicit | DIFlagPrototyped, isOptimized: false)
!1195 = !DISubroutineType(types: !1196)
!1196 = !{null, !1197, !1198}
!1197 = !DIDerivedType(tag: DW_TAG_pointer_type, baseType: !1171, size: 64, flags: DIFlagArtificial | DIFlagObjectPointer)
!1198 = !DIDerivedType(tag: DW_TAG_typedef, name: "size_t", scope: !1001, file: !1101, line: 198, baseType: !91)
!1199 = !DISubprogram(name: "~facet", scope: !1171, file: !1150, line: 408, type: !1200, isLocal: false, isDefinition: false, scopeLine: 408, containingType: !1171, virtuality: DW_VIRTUALITY_virtual, virtualIndex: 0, flags: DIFlagProtected | DIFlagPrototyped, isOptimized: false)
!1200 = !DISubroutineType(types: !1201)
!1201 = !{null, !1197}
!1202 = !DISubprogram(name: "_S_create_c_locale", linkageName: "_ZNSt6locale5facet18_S_create_c_localeERP15__locale_structPKcS2_", scope: !1171, file: !1150, line: 411, type: !1203, isLocal: false, isDefinition: false, scopeLine: 411, flags: DIFlagProtected | DIFlagPrototyped | DIFlagStaticMember, isOptimized: false)
!1203 = !DISubroutineType(types: !1204)
!1204 = !{null, !1205, !121, !1176}
!1205 = !DIDerivedType(tag: DW_TAG_reference_type, baseType: !1176, size: 64)
!1206 = !DISubprogram(name: "_S_clone_c_locale", linkageName: "_ZNSt6locale5facet17_S_clone_c_localeERP15__locale_struct", scope: !1171, file: !1150, line: 415, type: !1207, isLocal: false, isDefinition: false, scopeLine: 415, flags: DIFlagProtected | DIFlagPrototyped | DIFlagStaticMember, isOptimized: false)
!1207 = !DISubroutineType(types: !1208)
!1208 = !{!1176, !1205}
!1209 = !DISubprogram(name: "_S_destroy_c_locale", linkageName: "_ZNSt6locale5facet19_S_destroy_c_localeERP15__locale_struct", scope: !1171, file: !1150, line: 418, type: !1210, isLocal: false, isDefinition: false, scopeLine: 418, flags: DIFlagProtected | DIFlagPrototyped | DIFlagStaticMember, isOptimized: false)
!1210 = !DISubroutineType(types: !1211)
!1211 = !{null, !1205}
!1212 = !DISubprogram(name: "_S_lc_ctype_c_locale", linkageName: "_ZNSt6locale5facet20_S_lc_ctype_c_localeEP15__locale_structPKc", scope: !1171, file: !1150, line: 421, type: !1213, isLocal: false, isDefinition: false, scopeLine: 421, flags: DIFlagProtected | DIFlagPrototyped | DIFlagStaticMember, isOptimized: false)
!1213 = !DISubroutineType(types: !1214)
!1214 = !{!1176, !1176, !121}
!1215 = !DISubprogram(name: "_S_get_c_locale", linkageName: "_ZNSt6locale5facet15_S_get_c_localeEv", scope: !1171, file: !1150, line: 426, type: !1216, isLocal: false, isDefinition: false, scopeLine: 426, flags: DIFlagProtected | DIFlagPrototyped | DIFlagStaticMember, isOptimized: false)
!1216 = !DISubroutineType(types: !1217)
!1217 = !{!1176}
!1218 = !DISubprogram(name: "_S_get_c_name", linkageName: "_ZNSt6locale5facet13_S_get_c_nameEv", scope: !1171, file: !1150, line: 429, type: !1219, isLocal: false, isDefinition: false, scopeLine: 429, flags: DIFlagProtected | DIFlagPrototyped | DIFlagStaticMember, isOptimized: false)
!1219 = !DISubroutineType(types: !1220)
!1220 = !{!121}
!1221 = !DISubprogram(name: "facet", scope: !1171, file: !1150, line: 438, type: !1222, isLocal: false, isDefinition: false, scopeLine: 438, flags: DIFlagProtected | DIFlagPrototyped, isOptimized: false)
!1222 = !DISubroutineType(types: !1223)
!1223 = !{null, !1197, !1224}
!1224 = !DIDerivedType(tag: DW_TAG_reference_type, baseType: !1170, size: 64)
!1225 = !DISubprogram(name: "operator=", linkageName: "_ZNSt6locale5facetaSERKS0_", scope: !1171, file: !1150, line: 441, type: !1226, isLocal: false, isDefinition: false, scopeLine: 441, flags: DIFlagProtected | DIFlagPrototyped, isOptimized: false)
!1226 = !DISubroutineType(types: !1227)
!1227 = !{!1228, !1197, !1224}
!1228 = !DIDerivedType(tag: DW_TAG_reference_type, baseType: !1171, size: 64)
!1229 = !DISubprogram(name: "_M_add_reference", linkageName: "_ZNKSt6locale5facet16_M_add_referenceEv", scope: !1171, file: !1150, line: 446, type: !1230, isLocal: false, isDefinition: false, scopeLine: 446, flags: DIFlagPrototyped, isOptimized: false)
!1230 = !DISubroutineType(types: !1231)
!1231 = !{null, !1232}
!1232 = !DIDerivedType(tag: DW_TAG_pointer_type, baseType: !1170, size: 64, flags: DIFlagArtificial | DIFlagObjectPointer)
!1233 = !DISubprogram(name: "_M_remove_reference", linkageName: "_ZNKSt6locale5facet19_M_remove_referenceEv", scope: !1171, file: !1150, line: 450, type: !1230, isLocal: false, isDefinition: false, scopeLine: 450, flags: DIFlagPrototyped, isOptimized: false)
!1234 = !DISubprogram(name: "_M_sso_shim", linkageName: "_ZNKSt6locale5facet11_M_sso_shimEPKNS_2idE", scope: !1171, file: !1150, line: 466, type: !1235, isLocal: false, isDefinition: false, scopeLine: 466, flags: DIFlagPrototyped, isOptimized: false)
!1235 = !DISubroutineType(types: !1236)
!1236 = !{!1169, !1232, !1237}
!1237 = !DIDerivedType(tag: DW_TAG_pointer_type, baseType: !1238, size: 64)
!1238 = !DIDerivedType(tag: DW_TAG_const_type, baseType: !1239)
!1239 = distinct !DICompositeType(tag: DW_TAG_class_type, name: "id", scope: !1149, file: !1150, line: 482, size: 64, flags: DIFlagTypePassByReference, elements: !1240, identifier: "_ZTSNSt6locale2idE")
!1240 = !{!1241, !1242, !1243, !1248, !1249, !1252}
!1241 = !DIDerivedType(tag: DW_TAG_member, name: "_M_index", scope: !1239, file: !1150, line: 499, baseType: !1198, size: 64)
!1242 = !DIDerivedType(tag: DW_TAG_member, name: "_S_refcount", scope: !1239, file: !1150, line: 502, baseType: !1119, flags: DIFlagStaticMember)
!1243 = !DISubprogram(name: "operator=", linkageName: "_ZNSt6locale2idaSERKS0_", scope: !1239, file: !1150, line: 505, type: !1244, isLocal: false, isDefinition: false, scopeLine: 505, flags: DIFlagPrototyped, isOptimized: false)
!1244 = !DISubroutineType(types: !1245)
!1245 = !{null, !1246, !1247}
!1246 = !DIDerivedType(tag: DW_TAG_pointer_type, baseType: !1239, size: 64, flags: DIFlagArtificial | DIFlagObjectPointer)
!1247 = !DIDerivedType(tag: DW_TAG_reference_type, baseType: !1238, size: 64)
!1248 = !DISubprogram(name: "id", scope: !1239, file: !1150, line: 507, type: !1244, isLocal: false, isDefinition: false, scopeLine: 507, flags: DIFlagPrototyped, isOptimized: false)
!1249 = !DISubprogram(name: "id", scope: !1239, file: !1150, line: 513, type: !1250, isLocal: false, isDefinition: false, scopeLine: 513, flags: DIFlagPublic | DIFlagPrototyped, isOptimized: false)
!1250 = !DISubroutineType(types: !1251)
!1251 = !{null, !1246}
!1252 = !DISubprogram(name: "_M_id", linkageName: "_ZNKSt6locale2id5_M_idEv", scope: !1239, file: !1150, line: 516, type: !1253, isLocal: false, isDefinition: false, scopeLine: 516, flags: DIFlagPublic | DIFlagPrototyped, isOptimized: false)
!1253 = !DISubroutineType(types: !1254)
!1254 = !{!1198, !1255}
!1255 = !DIDerivedType(tag: DW_TAG_pointer_type, baseType: !1238, size: 64, flags: DIFlagArtificial | DIFlagObjectPointer)
!1256 = !DISubprogram(name: "_M_cow_shim", linkageName: "_ZNKSt6locale5facet11_M_cow_shimEPKNS_2idE", scope: !1171, file: !1150, line: 467, type: !1235, isLocal: false, isDefinition: false, scopeLine: 467, flags: DIFlagPrototyped, isOptimized: false)
!1257 = !DIDerivedType(tag: DW_TAG_member, name: "_M_facets_size", scope: !1164, file: !1150, line: 543, baseType: !1198, size: 64, offset: 128)
!1258 = !DIDerivedType(tag: DW_TAG_member, name: "_M_caches", scope: !1164, file: !1150, line: 544, baseType: !1168, size: 64, offset: 192)
!1259 = !DIDerivedType(tag: DW_TAG_member, name: "_M_names", scope: !1164, file: !1150, line: 545, baseType: !1260, size: 64, offset: 256)
!1260 = !DIDerivedType(tag: DW_TAG_pointer_type, baseType: !415, size: 64)
!1261 = !DIDerivedType(tag: DW_TAG_member, name: "_S_id_ctype", scope: !1164, file: !1150, line: 546, baseType: !1262, flags: DIFlagStaticMember)
!1262 = !DICompositeType(tag: DW_TAG_array_type, baseType: !1263, elements: !1264)
!1263 = !DIDerivedType(tag: DW_TAG_const_type, baseType: !1237)
!1264 = !{!1265}
!1265 = !DISubrange(count: -1)
!1266 = !DIDerivedType(tag: DW_TAG_member, name: "_S_id_numeric", scope: !1164, file: !1150, line: 547, baseType: !1262, flags: DIFlagStaticMember)
!1267 = !DIDerivedType(tag: DW_TAG_member, name: "_S_id_collate", scope: !1164, file: !1150, line: 548, baseType: !1262, flags: DIFlagStaticMember)
!1268 = !DIDerivedType(tag: DW_TAG_member, name: "_S_id_time", scope: !1164, file: !1150, line: 549, baseType: !1262, flags: DIFlagStaticMember)
!1269 = !DIDerivedType(tag: DW_TAG_member, name: "_S_id_monetary", scope: !1164, file: !1150, line: 550, baseType: !1262, flags: DIFlagStaticMember)
!1270 = !DIDerivedType(tag: DW_TAG_member, name: "_S_id_messages", scope: !1164, file: !1150, line: 551, baseType: !1262, flags: DIFlagStaticMember)
!1271 = !DIDerivedType(tag: DW_TAG_member, name: "_S_facet_categories", scope: !1164, file: !1150, line: 552, baseType: !1272, flags: DIFlagStaticMember)
!1272 = !DICompositeType(tag: DW_TAG_array_type, baseType: !1273, elements: !1264)
!1273 = !DIDerivedType(tag: DW_TAG_const_type, baseType: !1274)
!1274 = !DIDerivedType(tag: DW_TAG_pointer_type, baseType: !1263, size: 64)
!1275 = !DISubprogram(name: "_M_add_reference", linkageName: "_ZNSt6locale5_Impl16_M_add_referenceEv", scope: !1164, file: !1150, line: 555, type: !1276, isLocal: false, isDefinition: false, scopeLine: 555, flags: DIFlagPrototyped, isOptimized: false)
!1276 = !DISubroutineType(types: !1277)
!1277 = !{null, !1278}
!1278 = !DIDerivedType(tag: DW_TAG_pointer_type, baseType: !1164, size: 64, flags: DIFlagArtificial | DIFlagObjectPointer)
!1279 = !DISubprogram(name: "_M_remove_reference", linkageName: "_ZNSt6locale5_Impl19_M_remove_referenceEv", scope: !1164, file: !1150, line: 559, type: !1276, isLocal: false, isDefinition: false, scopeLine: 559, flags: DIFlagPrototyped, isOptimized: false)
!1280 = !DISubprogram(name: "_Impl", scope: !1164, file: !1150, line: 573, type: !1281, isLocal: false, isDefinition: false, scopeLine: 573, flags: DIFlagPrototyped, isOptimized: false)
!1281 = !DISubroutineType(types: !1282)
!1282 = !{null, !1278, !1283, !1198}
!1283 = !DIDerivedType(tag: DW_TAG_reference_type, baseType: !1284, size: 64)
!1284 = !DIDerivedType(tag: DW_TAG_const_type, baseType: !1164)
!1285 = !DISubprogram(name: "_Impl", scope: !1164, file: !1150, line: 574, type: !1286, isLocal: false, isDefinition: false, scopeLine: 574, flags: DIFlagPrototyped, isOptimized: false)
!1286 = !DISubroutineType(types: !1287)
!1287 = !{null, !1278, !121, !1198}
!1288 = !DISubprogram(name: "_Impl", scope: !1164, file: !1150, line: 575, type: !1289, isLocal: false, isDefinition: false, scopeLine: 575, flags: DIFlagPrototyped, isOptimized: false)
!1289 = !DISubroutineType(types: !1290)
!1290 = !{null, !1278, !1198}
!1291 = !DISubprogram(name: "~_Impl", scope: !1164, file: !1150, line: 577, type: !1276, isLocal: false, isDefinition: false, scopeLine: 577, flags: DIFlagPrototyped, isOptimized: false)
!1292 = !DISubprogram(name: "_Impl", scope: !1164, file: !1150, line: 579, type: !1293, isLocal: false, isDefinition: false, scopeLine: 579, flags: DIFlagPrototyped, isOptimized: false)
!1293 = !DISubroutineType(types: !1294)
!1294 = !{null, !1278, !1283}
!1295 = !DISubprogram(name: "operator=", linkageName: "_ZNSt6locale5_ImplaSERKS0_", scope: !1164, file: !1150, line: 582, type: !1293, isLocal: false, isDefinition: false, scopeLine: 582, flags: DIFlagPrototyped, isOptimized: false)
!1296 = !DISubprogram(name: "_M_check_same_name", linkageName: "_ZNSt6locale5_Impl18_M_check_same_nameEv", scope: !1164, file: !1150, line: 585, type: !1297, isLocal: false, isDefinition: false, scopeLine: 585, flags: DIFlagPrototyped, isOptimized: false)
!1297 = !DISubroutineType(types: !1298)
!1298 = !{!32, !1278}
!1299 = !DISubprogram(name: "_M_replace_categories", linkageName: "_ZNSt6locale5_Impl21_M_replace_categoriesEPKS0_i", scope: !1164, file: !1150, line: 596, type: !1300, isLocal: false, isDefinition: false, scopeLine: 596, flags: DIFlagPrototyped, isOptimized: false)
!1300 = !DISubroutineType(types: !1301)
!1301 = !{null, !1278, !1302, !1154}
!1302 = !DIDerivedType(tag: DW_TAG_pointer_type, baseType: !1284, size: 64)
!1303 = !DISubprogram(name: "_M_replace_category", linkageName: "_ZNSt6locale5_Impl19_M_replace_categoryEPKS0_PKPKNS_2idE", scope: !1164, file: !1150, line: 599, type: !1304, isLocal: false, isDefinition: false, scopeLine: 599, flags: DIFlagPrototyped, isOptimized: false)
!1304 = !DISubroutineType(types: !1305)
!1305 = !{null, !1278, !1302, !1274}
!1306 = !DISubprogram(name: "_M_replace_facet", linkageName: "_ZNSt6locale5_Impl16_M_replace_facetEPKS0_PKNS_2idE", scope: !1164, file: !1150, line: 602, type: !1307, isLocal: false, isDefinition: false, scopeLine: 602, flags: DIFlagPrototyped, isOptimized: false)
!1307 = !DISubroutineType(types: !1308)
!1308 = !{null, !1278, !1302, !1237}
!1309 = !DISubprogram(name: "_M_install_facet", linkageName: "_ZNSt6locale5_Impl16_M_install_facetEPKNS_2idEPKNS_5facetE", scope: !1164, file: !1150, line: 605, type: !1310, isLocal: false, isDefinition: false, scopeLine: 605, flags: DIFlagPrototyped, isOptimized: false)
!1310 = !DISubroutineType(types: !1311)
!1311 = !{null, !1278, !1237, !1169}
!1312 = !DISubprogram(name: "_M_install_cache", linkageName: "_ZNSt6locale5_Impl16_M_install_cacheEPKNS_5facetEm", scope: !1164, file: !1150, line: 621, type: !1313, isLocal: false, isDefinition: false, scopeLine: 621, flags: DIFlagPrototyped, isOptimized: false)
!1313 = !DISubroutineType(types: !1314)
!1314 = !{null, !1278, !1169, !1198}
!1315 = !DISubprogram(name: "_M_init_extra", linkageName: "_ZNSt6locale5_Impl13_M_init_extraEPPNS_5facetE", scope: !1164, file: !1150, line: 623, type: !1316, isLocal: false, isDefinition: false, scopeLine: 623, flags: DIFlagPrototyped, isOptimized: false)
!1316 = !DISubroutineType(types: !1317)
!1317 = !{null, !1278, !1318}
!1318 = !DIDerivedType(tag: DW_TAG_pointer_type, baseType: !1319, size: 64)
!1319 = !DIDerivedType(tag: DW_TAG_pointer_type, baseType: !1171, size: 64)
!1320 = !DISubprogram(name: "_M_init_extra", linkageName: "_ZNSt6locale5_Impl13_M_init_extraEPvS1_PKcS3_", scope: !1164, file: !1150, line: 624, type: !1321, isLocal: false, isDefinition: false, scopeLine: 624, flags: DIFlagPrototyped, isOptimized: false)
!1321 = !DISubroutineType(types: !1322)
!1322 = !{null, !1278, !1135, !1135, !121, !121}
!1323 = !DIDerivedType(tag: DW_TAG_member, name: "_S_classic", scope: !1149, file: !1150, line: 312, baseType: !1163, flags: DIFlagStaticMember)
!1324 = !DIDerivedType(tag: DW_TAG_member, name: "_S_global", scope: !1149, file: !1150, line: 315, baseType: !1163, flags: DIFlagStaticMember)
!1325 = !DIDerivedType(tag: DW_TAG_member, name: "_S_categories", scope: !1149, file: !1150, line: 321, baseType: !1326, flags: DIFlagStaticMember)
!1326 = !DIDerivedType(tag: DW_TAG_const_type, baseType: !1327)
!1327 = !DIDerivedType(tag: DW_TAG_pointer_type, baseType: !1328, size: 64)
!1328 = !DIDerivedType(tag: DW_TAG_const_type, baseType: !121)
!1329 = !DIDerivedType(tag: DW_TAG_member, name: "_S_once", scope: !1149, file: !1150, line: 336, baseType: !1187, flags: DIFlagStaticMember)
!1330 = !DIDerivedType(tag: DW_TAG_member, name: "_S_twinned_facets", scope: !1149, file: !1150, line: 355, baseType: !1262, flags: DIFlagStaticMember)
!1331 = !DISubprogram(name: "locale", scope: !1149, file: !1150, line: 117, type: !1332, isLocal: false, isDefinition: false, scopeLine: 117, flags: DIFlagPublic | DIFlagPrototyped, isOptimized: false)
!1332 = !DISubroutineType(types: !1333)
!1333 = !{null, !1334}
!1334 = !DIDerivedType(tag: DW_TAG_pointer_type, baseType: !1149, size: 64, flags: DIFlagArtificial | DIFlagObjectPointer)
!1335 = !DISubprogram(name: "locale", scope: !1149, file: !1150, line: 126, type: !1336, isLocal: false, isDefinition: false, scopeLine: 126, flags: DIFlagPublic | DIFlagPrototyped, isOptimized: false)
!1336 = !DISubroutineType(types: !1337)
!1337 = !{null, !1334, !1338}
!1338 = !DIDerivedType(tag: DW_TAG_reference_type, baseType: !1339, size: 64)
!1339 = !DIDerivedType(tag: DW_TAG_const_type, baseType: !1149)
!1340 = !DISubprogram(name: "locale", scope: !1149, file: !1150, line: 137, type: !1341, isLocal: false, isDefinition: false, scopeLine: 137, flags: DIFlagPublic | DIFlagExplicit | DIFlagPrototyped, isOptimized: false)
!1341 = !DISubroutineType(types: !1342)
!1342 = !{null, !1334, !121}
!1343 = !DISubprogram(name: "locale", scope: !1149, file: !1150, line: 151, type: !1344, isLocal: false, isDefinition: false, scopeLine: 151, flags: DIFlagPublic | DIFlagPrototyped, isOptimized: false)
!1344 = !DISubroutineType(types: !1345)
!1345 = !{null, !1334, !1338, !121, !1154}
!1346 = !DISubprogram(name: "locale", scope: !1149, file: !1150, line: 163, type: !1347, isLocal: false, isDefinition: false, scopeLine: 163, flags: DIFlagPublic | DIFlagExplicit | DIFlagPrototyped, isOptimized: false)
!1347 = !DISubroutineType(types: !1348)
!1348 = !{null, !1334, !1349}
!1349 = !DIDerivedType(tag: DW_TAG_reference_type, baseType: !1350, size: 64)
!1350 = !DIDerivedType(tag: DW_TAG_const_type, baseType: !1351)
!1351 = !DIDerivedType(tag: DW_TAG_typedef, name: "string", scope: !1353, file: !1352, line: 74, baseType: !1354)
!1352 = !DIFile(filename: "/opt/Xilinx/Vitis_HLS/2021.1/tps/lnx64/gcc-6.2.0/lib/gcc/x86_64-pc-linux-gnu/6.2.0/../../../../include/c++/6.2.0/bits/stringfwd.h", directory: "/afs/hep.wisc.edu/home/mbileska/WOMBATv2HLS/duo/testMisc20/vivado_hls_duo")
!1353 = !DINamespace(name: "__cxx11", scope: !1001, exportSymbols: true)
!1354 = distinct !DICompositeType(tag: DW_TAG_class_type, name: "basic_string<char, std::char_traits<char>, std::allocator<char> >", scope: !1353, file: !1355, line: 1573, size: 256, flags: DIFlagTypePassByReference, elements: !1356, templateParams: !1980, identifier: "_ZTSNSt7__cxx1112basic_stringIcSt11char_traitsIcESaIcEEE")
!1355 = !DIFile(filename: "/opt/Xilinx/Vitis_HLS/2021.1/tps/lnx64/gcc-6.2.0/lib/gcc/x86_64-pc-linux-gnu/6.2.0/../../../../include/c++/6.2.0/bits/basic_string.tcc", directory: "/afs/hep.wisc.edu/home/mbileska/WOMBATv2HLS/duo/testMisc20/vivado_hls_duo")
!1356 = !{!1357, !1467, !1483, !1484, !1492, !1496, !1499, !1504, !1507, !1513, !1514, !1515, !1518, !1522, !1525, !1526, !1529, !1530, !1534, !1539, !1542, !1545, !1548, !1551, !1554, !1555, !1558, !1618, !1674, !1677, !1680, !1683, !1687, !1690, !1693, !1694, !1697, !1698, !1701, !1704, !1707, !1710, !1713, !1717, !1722, !1725, !1728, !1729, !1733, !1736, !1739, !1742, !1745, !1748, !1751, !1752, !1753, !1758, !1763, !1764, !1765, !1766, !1767, !1768, !1769, !1772, !1773, !1774, !1775, !1776, !1777, !1778, !1779, !1780, !1781, !1790, !1796, !1797, !1798, !1801, !1804, !1805, !1806, !1807, !1808, !1809, !1810, !1811, !1814, !1817, !1818, !1821, !1822, !1825, !1826, !1827, !1828, !1829, !1830, !1831, !1832, !1835, !1838, !1841, !1844, !1847, !1850, !1853, !1857, !1860, !1863, !1866, !1867, !1870, !1873, !1876, !1879, !1882, !1885, !1888, !1891, !1894, !1897, !1900, !1903, !1906, !1909, !1910, !1913, !1914, !1917, !1920, !1923, !1924, !1927, !1930, !1933, !1936, !1939, !1940, !1941, !1942, !1943, !1944, !1945, !1946, !1947, !1948, !1949, !1950, !1951, !1952, !1953, !1954, !1955, !1956, !1957, !1958, !1959, !1962, !1965, !1968, !1971, !1974, !1977}
!1357 = !DIDerivedType(tag: DW_TAG_member, name: "npos", scope: !1354, file: !1358, line: 96, baseType: !1359, flags: DIFlagPublic | DIFlagStaticMember, extraData: i64 -1)
!1358 = !DIFile(filename: "/opt/Xilinx/Vitis_HLS/2021.1/tps/lnx64/gcc-6.2.0/lib/gcc/x86_64-pc-linux-gnu/6.2.0/../../../../include/c++/6.2.0/bits/basic_string.h", directory: "/afs/hep.wisc.edu/home/mbileska/WOMBATv2HLS/duo/testMisc20/vivado_hls_duo")
!1359 = !DIDerivedType(tag: DW_TAG_const_type, baseType: !1360)
!1360 = !DIDerivedType(tag: DW_TAG_typedef, name: "size_type", scope: !1354, file: !1358, line: 83, baseType: !1361)
!1361 = !DIDerivedType(tag: DW_TAG_typedef, name: "size_type", scope: !1363, file: !1362, line: 61, baseType: !1445)
!1362 = !DIFile(filename: "/opt/Xilinx/Vitis_HLS/2021.1/tps/lnx64/gcc-6.2.0/lib/gcc/x86_64-pc-linux-gnu/6.2.0/../../../../include/c++/6.2.0/ext/alloc_traits.h", directory: "/afs/hep.wisc.edu/home/mbileska/WOMBATv2HLS/duo/testMisc20/vivado_hls_duo")
!1363 = distinct !DICompositeType(tag: DW_TAG_structure_type, name: "__alloc_traits<std::allocator<char> >", scope: !1364, file: !1362, line: 50, size: 8, flags: DIFlagTypePassByValue, elements: !1365, templateParams: !1451, identifier: "_ZTSN9__gnu_cxx14__alloc_traitsISaIcEEE")
!1364 = !DINamespace(name: "__gnu_cxx", scope: null)
!1365 = !{!1366, !1453, !1456, !1460, !1463, !1464, !1465, !1466}
!1366 = !DIDerivedType(tag: DW_TAG_inheritance, scope: !1363, baseType: !1367)
!1367 = distinct !DICompositeType(tag: DW_TAG_structure_type, name: "allocator_traits<std::allocator<char> >", scope: !1001, file: !1368, line: 364, size: 8, flags: DIFlagTypePassByValue, elements: !1369, templateParams: !1451, identifier: "_ZTSSt16allocator_traitsISaIcEE")
!1368 = !DIFile(filename: "/opt/Xilinx/Vitis_HLS/2021.1/tps/lnx64/gcc-6.2.0/lib/gcc/x86_64-pc-linux-gnu/6.2.0/../../../../include/c++/6.2.0/bits/alloc_traits.h", directory: "/afs/hep.wisc.edu/home/mbileska/WOMBATv2HLS/duo/testMisc20/vivado_hls_duo")
!1369 = !{!1370, !1435, !1439, !1442, !1448}
!1370 = !DISubprogram(name: "allocate", linkageName: "_ZNSt16allocator_traitsISaIcEE8allocateERS0_m", scope: !1367, file: !1368, line: 415, type: !1371, isLocal: false, isDefinition: false, scopeLine: 415, flags: DIFlagPrototyped | DIFlagStaticMember, isOptimized: false)
!1371 = !DISubroutineType(types: !1372)
!1372 = !{!1373, !1374, !1434}
!1373 = !DIDerivedType(tag: DW_TAG_typedef, name: "pointer", scope: !1367, file: !1368, line: 372, baseType: !415)
!1374 = !DIDerivedType(tag: DW_TAG_reference_type, baseType: !1375, size: 64)
!1375 = !DIDerivedType(tag: DW_TAG_typedef, name: "allocator_type", scope: !1367, file: !1368, line: 367, baseType: !1376)
!1376 = distinct !DICompositeType(tag: DW_TAG_class_type, name: "allocator<char>", scope: !1001, file: !1377, line: 160, size: 8, flags: DIFlagTypePassByReference, elements: !1378, templateParams: !1432, identifier: "_ZTSSaIcE")
!1377 = !DIFile(filename: "/opt/Xilinx/Vitis_HLS/2021.1/tps/lnx64/gcc-6.2.0/lib/gcc/x86_64-pc-linux-gnu/6.2.0/../../../../include/c++/6.2.0/bits/allocator.h", directory: "/afs/hep.wisc.edu/home/mbileska/WOMBATv2HLS/duo/testMisc20/vivado_hls_duo")
!1378 = !{!1379, !1422, !1426, !1431}
!1379 = !DIDerivedType(tag: DW_TAG_inheritance, scope: !1376, baseType: !1380, flags: DIFlagPublic)
!1380 = !DIDerivedType(tag: DW_TAG_typedef, name: "__allocator_base<char>", scope: !1001, file: !1381, line: 48, baseType: !1382)
!1381 = !DIFile(filename: "/opt/Xilinx/Vitis_HLS/2021.1/tps/lnx64/gcc-6.2.0/lib/gcc/x86_64-pc-linux-gnu/6.2.0/../../../../include/c++/6.2.0/x86_64-pc-linux-gnu/bits/c++allocator.h", directory: "/afs/hep.wisc.edu/home/mbileska/WOMBATv2HLS/duo/testMisc20/vivado_hls_duo")
!1382 = distinct !DICompositeType(tag: DW_TAG_class_type, name: "new_allocator<char>", scope: !1364, file: !1383, line: 58, size: 8, flags: DIFlagTypePassByReference, elements: !1384, templateParams: !1420, identifier: "_ZTSN9__gnu_cxx13new_allocatorIcEE")
!1383 = !DIFile(filename: "/opt/Xilinx/Vitis_HLS/2021.1/tps/lnx64/gcc-6.2.0/lib/gcc/x86_64-pc-linux-gnu/6.2.0/../../../../include/c++/6.2.0/ext/new_allocator.h", directory: "/afs/hep.wisc.edu/home/mbileska/WOMBATv2HLS/duo/testMisc20/vivado_hls_duo")
!1384 = !{!1385, !1389, !1394, !1395, !1402, !1408, !1414, !1417}
!1385 = !DISubprogram(name: "new_allocator", scope: !1382, file: !1383, line: 79, type: !1386, isLocal: false, isDefinition: false, scopeLine: 79, flags: DIFlagPublic | DIFlagPrototyped, isOptimized: false)
!1386 = !DISubroutineType(types: !1387)
!1387 = !{null, !1388}
!1388 = !DIDerivedType(tag: DW_TAG_pointer_type, baseType: !1382, size: 64, flags: DIFlagArtificial | DIFlagObjectPointer)
!1389 = !DISubprogram(name: "new_allocator", scope: !1382, file: !1383, line: 81, type: !1390, isLocal: false, isDefinition: false, scopeLine: 81, flags: DIFlagPublic | DIFlagPrototyped, isOptimized: false)
!1390 = !DISubroutineType(types: !1391)
!1391 = !{null, !1388, !1392}
!1392 = !DIDerivedType(tag: DW_TAG_reference_type, baseType: !1393, size: 64)
!1393 = !DIDerivedType(tag: DW_TAG_const_type, baseType: !1382)
!1394 = !DISubprogram(name: "~new_allocator", scope: !1382, file: !1383, line: 86, type: !1386, isLocal: false, isDefinition: false, scopeLine: 86, flags: DIFlagPublic | DIFlagPrototyped, isOptimized: false)
!1395 = !DISubprogram(name: "address", linkageName: "_ZNK9__gnu_cxx13new_allocatorIcE7addressERc", scope: !1382, file: !1383, line: 89, type: !1396, isLocal: false, isDefinition: false, scopeLine: 89, flags: DIFlagPublic | DIFlagPrototyped, isOptimized: false)
!1396 = !DISubroutineType(types: !1397)
!1397 = !{!1398, !1399, !1400}
!1398 = !DIDerivedType(tag: DW_TAG_typedef, name: "pointer", scope: !1382, file: !1383, line: 63, baseType: !415)
!1399 = !DIDerivedType(tag: DW_TAG_pointer_type, baseType: !1393, size: 64, flags: DIFlagArtificial | DIFlagObjectPointer)
!1400 = !DIDerivedType(tag: DW_TAG_typedef, name: "reference", scope: !1382, file: !1383, line: 65, baseType: !1401)
!1401 = !DIDerivedType(tag: DW_TAG_reference_type, baseType: !53, size: 64)
!1402 = !DISubprogram(name: "address", linkageName: "_ZNK9__gnu_cxx13new_allocatorIcE7addressERKc", scope: !1382, file: !1383, line: 93, type: !1403, isLocal: false, isDefinition: false, scopeLine: 93, flags: DIFlagPublic | DIFlagPrototyped, isOptimized: false)
!1403 = !DISubroutineType(types: !1404)
!1404 = !{!1405, !1399, !1406}
!1405 = !DIDerivedType(tag: DW_TAG_typedef, name: "const_pointer", scope: !1382, file: !1383, line: 64, baseType: !121)
!1406 = !DIDerivedType(tag: DW_TAG_typedef, name: "const_reference", scope: !1382, file: !1383, line: 66, baseType: !1407)
!1407 = !DIDerivedType(tag: DW_TAG_reference_type, baseType: !52, size: 64)
!1408 = !DISubprogram(name: "allocate", linkageName: "_ZN9__gnu_cxx13new_allocatorIcE8allocateEmPKv", scope: !1382, file: !1383, line: 99, type: !1409, isLocal: false, isDefinition: false, scopeLine: 99, flags: DIFlagPublic | DIFlagPrototyped, isOptimized: false)
!1409 = !DISubroutineType(types: !1410)
!1410 = !{!1398, !1388, !1411, !1412}
!1411 = !DIDerivedType(tag: DW_TAG_typedef, name: "size_type", file: !1383, line: 61, baseType: !1198)
!1412 = !DIDerivedType(tag: DW_TAG_pointer_type, baseType: !1413, size: 64)
!1413 = !DIDerivedType(tag: DW_TAG_const_type, baseType: null)
!1414 = !DISubprogram(name: "deallocate", linkageName: "_ZN9__gnu_cxx13new_allocatorIcE10deallocateEPcm", scope: !1382, file: !1383, line: 109, type: !1415, isLocal: false, isDefinition: false, scopeLine: 109, flags: DIFlagPublic | DIFlagPrototyped, isOptimized: false)
!1415 = !DISubroutineType(types: !1416)
!1416 = !{null, !1388, !1398, !1411}
!1417 = !DISubprogram(name: "max_size", linkageName: "_ZNK9__gnu_cxx13new_allocatorIcE8max_sizeEv", scope: !1382, file: !1383, line: 113, type: !1418, isLocal: false, isDefinition: false, scopeLine: 113, flags: DIFlagPublic | DIFlagPrototyped, isOptimized: false)
!1418 = !DISubroutineType(types: !1419)
!1419 = !{!1411, !1399}
!1420 = !{!1421}
!1421 = !DITemplateTypeParameter(name: "_Tp", type: !53)
!1422 = !DISubprogram(name: "allocator", scope: !1376, file: !1377, line: 118, type: !1423, isLocal: false, isDefinition: false, scopeLine: 118, flags: DIFlagPublic | DIFlagPrototyped, isOptimized: false)
!1423 = !DISubroutineType(types: !1424)
!1424 = !{null, !1425}
!1425 = !DIDerivedType(tag: DW_TAG_pointer_type, baseType: !1376, size: 64, flags: DIFlagArtificial | DIFlagObjectPointer)
!1426 = !DISubprogram(name: "allocator", scope: !1376, file: !1377, line: 120, type: !1427, isLocal: false, isDefinition: false, scopeLine: 120, flags: DIFlagPublic | DIFlagPrototyped, isOptimized: false)
!1427 = !DISubroutineType(types: !1428)
!1428 = !{null, !1425, !1429}
!1429 = !DIDerivedType(tag: DW_TAG_reference_type, baseType: !1430, size: 64)
!1430 = !DIDerivedType(tag: DW_TAG_const_type, baseType: !1376)
!1431 = !DISubprogram(name: "~allocator", scope: !1376, file: !1377, line: 126, type: !1423, isLocal: false, isDefinition: false, scopeLine: 126, flags: DIFlagPublic | DIFlagPrototyped, isOptimized: false)
!1432 = !{!1433}
!1433 = !DITemplateTypeParameter(type: !53)
!1434 = !DIDerivedType(tag: DW_TAG_typedef, name: "size_type", file: !1368, line: 387, baseType: !1198)
!1435 = !DISubprogram(name: "allocate", linkageName: "_ZNSt16allocator_traitsISaIcEE8allocateERS0_mPKv", scope: !1367, file: !1368, line: 429, type: !1436, isLocal: false, isDefinition: false, scopeLine: 429, flags: DIFlagPrototyped | DIFlagStaticMember, isOptimized: false)
!1436 = !DISubroutineType(types: !1437)
!1437 = !{!1373, !1374, !1434, !1438}
!1438 = !DIDerivedType(tag: DW_TAG_typedef, name: "const_void_pointer", file: !1368, line: 381, baseType: !1412)
!1439 = !DISubprogram(name: "deallocate", linkageName: "_ZNSt16allocator_traitsISaIcEE10deallocateERS0_Pcm", scope: !1367, file: !1368, line: 441, type: !1440, isLocal: false, isDefinition: false, scopeLine: 441, flags: DIFlagPrototyped | DIFlagStaticMember, isOptimized: false)
!1440 = !DISubroutineType(types: !1441)
!1441 = !{null, !1374, !1373, !1434}
!1442 = !DISubprogram(name: "max_size", linkageName: "_ZNSt16allocator_traitsISaIcEE8max_sizeERKS0_", scope: !1367, file: !1368, line: 475, type: !1443, isLocal: false, isDefinition: false, scopeLine: 475, flags: DIFlagPrototyped | DIFlagStaticMember, isOptimized: false)
!1443 = !DISubroutineType(types: !1444)
!1444 = !{!1445, !1446}
!1445 = !DIDerivedType(tag: DW_TAG_typedef, name: "size_type", scope: !1367, file: !1368, line: 387, baseType: !1198)
!1446 = !DIDerivedType(tag: DW_TAG_reference_type, baseType: !1447, size: 64)
!1447 = !DIDerivedType(tag: DW_TAG_const_type, baseType: !1375)
!1448 = !DISubprogram(name: "select_on_container_copy_construction", linkageName: "_ZNSt16allocator_traitsISaIcEE37select_on_container_copy_constructionERKS0_", scope: !1367, file: !1368, line: 484, type: !1449, isLocal: false, isDefinition: false, scopeLine: 484, flags: DIFlagPrototyped | DIFlagStaticMember, isOptimized: false)
!1449 = !DISubroutineType(types: !1450)
!1450 = !{!1375, !1446}
!1451 = !{!1452}
!1452 = !DITemplateTypeParameter(name: "_Alloc", type: !1376)
!1453 = !DISubprogram(name: "_S_select_on_copy", linkageName: "_ZN9__gnu_cxx14__alloc_traitsISaIcEE17_S_select_on_copyERKS1_", scope: !1363, file: !1362, line: 94, type: !1454, isLocal: false, isDefinition: false, scopeLine: 94, flags: DIFlagPrototyped | DIFlagStaticMember, isOptimized: false)
!1454 = !DISubroutineType(types: !1455)
!1455 = !{!1376, !1429}
!1456 = !DISubprogram(name: "_S_on_swap", linkageName: "_ZN9__gnu_cxx14__alloc_traitsISaIcEE10_S_on_swapERS1_S3_", scope: !1363, file: !1362, line: 97, type: !1457, isLocal: false, isDefinition: false, scopeLine: 97, flags: DIFlagPrototyped | DIFlagStaticMember, isOptimized: false)
!1457 = !DISubroutineType(types: !1458)
!1458 = !{null, !1459, !1459}
!1459 = !DIDerivedType(tag: DW_TAG_reference_type, baseType: !1376, size: 64)
!1460 = !DISubprogram(name: "_S_propagate_on_copy_assign", linkageName: "_ZN9__gnu_cxx14__alloc_traitsISaIcEE27_S_propagate_on_copy_assignEv", scope: !1363, file: !1362, line: 100, type: !1461, isLocal: false, isDefinition: false, scopeLine: 100, flags: DIFlagPrototyped | DIFlagStaticMember, isOptimized: false)
!1461 = !DISubroutineType(types: !1462)
!1462 = !{!32}
!1463 = !DISubprogram(name: "_S_propagate_on_move_assign", linkageName: "_ZN9__gnu_cxx14__alloc_traitsISaIcEE27_S_propagate_on_move_assignEv", scope: !1363, file: !1362, line: 103, type: !1461, isLocal: false, isDefinition: false, scopeLine: 103, flags: DIFlagPrototyped | DIFlagStaticMember, isOptimized: false)
!1464 = !DISubprogram(name: "_S_propagate_on_swap", linkageName: "_ZN9__gnu_cxx14__alloc_traitsISaIcEE20_S_propagate_on_swapEv", scope: !1363, file: !1362, line: 106, type: !1461, isLocal: false, isDefinition: false, scopeLine: 106, flags: DIFlagPrototyped | DIFlagStaticMember, isOptimized: false)
!1465 = !DISubprogram(name: "_S_always_equal", linkageName: "_ZN9__gnu_cxx14__alloc_traitsISaIcEE15_S_always_equalEv", scope: !1363, file: !1362, line: 109, type: !1461, isLocal: false, isDefinition: false, scopeLine: 109, flags: DIFlagPrototyped | DIFlagStaticMember, isOptimized: false)
!1466 = !DISubprogram(name: "_S_nothrow_move", linkageName: "_ZN9__gnu_cxx14__alloc_traitsISaIcEE15_S_nothrow_moveEv", scope: !1363, file: !1362, line: 112, type: !1461, isLocal: false, isDefinition: false, scopeLine: 112, flags: DIFlagPrototyped | DIFlagStaticMember, isOptimized: false)
!1467 = !DIDerivedType(tag: DW_TAG_member, name: "_M_dataplus", scope: !1354, file: !1358, line: 115, baseType: !1468, size: 64)
!1468 = distinct !DICompositeType(tag: DW_TAG_structure_type, name: "_Alloc_hider", scope: !1354, file: !1358, line: 107, size: 64, flags: DIFlagTypePassByReference, elements: !1469, identifier: "_ZTSNSt7__cxx1112basic_stringIcSt11char_traitsIcESaIcEE12_Alloc_hiderE")
!1469 = !{!1470, !1476, !1479}
!1470 = !DIDerivedType(tag: DW_TAG_inheritance, scope: !1468, baseType: !1471)
!1471 = !DIDerivedType(tag: DW_TAG_typedef, name: "allocator_type", scope: !1354, file: !1358, line: 82, baseType: !1472)
!1472 = !DIDerivedType(tag: DW_TAG_typedef, name: "_Char_alloc_type", scope: !1354, file: !1358, line: 75, baseType: !1473)
!1473 = !DIDerivedType(tag: DW_TAG_typedef, name: "other", scope: !1474, file: !1362, line: 117, baseType: !1475)
!1474 = distinct !DICompositeType(tag: DW_TAG_structure_type, name: "rebind<char>", scope: !1363, file: !1362, line: 116, size: 8, flags: DIFlagTypePassByValue, elements: !4, templateParams: !1420, identifier: "_ZTSN9__gnu_cxx14__alloc_traitsISaIcEE6rebindIcEE")
!1475 = !DIDerivedType(tag: DW_TAG_typedef, name: "rebind_alloc<char>", scope: !1367, file: !1368, line: 402, baseType: !1376)
!1476 = !DIDerivedType(tag: DW_TAG_member, name: "_M_p", scope: !1468, file: !1358, line: 112, baseType: !1477, size: 64)
!1477 = !DIDerivedType(tag: DW_TAG_typedef, name: "pointer", scope: !1354, file: !1358, line: 87, baseType: !1478)
!1478 = !DIDerivedType(tag: DW_TAG_typedef, name: "pointer", scope: !1363, file: !1362, line: 59, baseType: !1373)
!1479 = !DISubprogram(name: "_Alloc_hider", scope: !1468, file: !1358, line: 109, type: !1480, isLocal: false, isDefinition: false, scopeLine: 109, flags: DIFlagPrototyped, isOptimized: false)
!1480 = !DISubroutineType(types: !1481)
!1481 = !{null, !1482, !1477, !1429}
!1482 = !DIDerivedType(tag: DW_TAG_pointer_type, baseType: !1468, size: 64, flags: DIFlagArtificial | DIFlagObjectPointer)
!1483 = !DIDerivedType(tag: DW_TAG_member, name: "_M_string_length", scope: !1354, file: !1358, line: 116, baseType: !1360, size: 64, offset: 64)
!1484 = !DIDerivedType(tag: DW_TAG_member, scope: !1354, file: !1358, line: 120, baseType: !1485, size: 128, offset: 128)
!1485 = distinct !DICompositeType(tag: DW_TAG_union_type, scope: !1354, file: !1358, line: 120, size: 128, flags: DIFlagTypePassByValue, elements: !1486, identifier: "_ZTSNSt7__cxx1112basic_stringIcSt11char_traitsIcESaIcEEUt0_E")
!1486 = !{!1487, !1491}
!1487 = !DIDerivedType(tag: DW_TAG_member, name: "_M_local_buf", scope: !1485, file: !1358, line: 122, baseType: !1488, size: 128)
!1488 = !DICompositeType(tag: DW_TAG_array_type, baseType: !53, size: 128, elements: !1489)
!1489 = !{!1490}
!1490 = !DISubrange(count: 16)
!1491 = !DIDerivedType(tag: DW_TAG_member, name: "_M_allocated_capacity", scope: !1485, file: !1358, line: 123, baseType: !1360, size: 64)
!1492 = !DISubprogram(name: "_M_data", linkageName: "_ZNSt7__cxx1112basic_stringIcSt11char_traitsIcESaIcEE7_M_dataEPc", scope: !1354, file: !1358, line: 127, type: !1493, isLocal: false, isDefinition: false, scopeLine: 127, flags: DIFlagPrototyped, isOptimized: false)
!1493 = !DISubroutineType(types: !1494)
!1494 = !{null, !1495, !1477}
!1495 = !DIDerivedType(tag: DW_TAG_pointer_type, baseType: !1354, size: 64, flags: DIFlagArtificial | DIFlagObjectPointer)
!1496 = !DISubprogram(name: "_M_length", linkageName: "_ZNSt7__cxx1112basic_stringIcSt11char_traitsIcESaIcEE9_M_lengthEm", scope: !1354, file: !1358, line: 131, type: !1497, isLocal: false, isDefinition: false, scopeLine: 131, flags: DIFlagPrototyped, isOptimized: false)
!1497 = !DISubroutineType(types: !1498)
!1498 = !{null, !1495, !1360}
!1499 = !DISubprogram(name: "_M_data", linkageName: "_ZNKSt7__cxx1112basic_stringIcSt11char_traitsIcESaIcEE7_M_dataEv", scope: !1354, file: !1358, line: 135, type: !1500, isLocal: false, isDefinition: false, scopeLine: 135, flags: DIFlagPrototyped, isOptimized: false)
!1500 = !DISubroutineType(types: !1501)
!1501 = !{!1477, !1502}
!1502 = !DIDerivedType(tag: DW_TAG_pointer_type, baseType: !1503, size: 64, flags: DIFlagArtificial | DIFlagObjectPointer)
!1503 = !DIDerivedType(tag: DW_TAG_const_type, baseType: !1354)
!1504 = !DISubprogram(name: "_M_local_data", linkageName: "_ZNSt7__cxx1112basic_stringIcSt11char_traitsIcESaIcEE13_M_local_dataEv", scope: !1354, file: !1358, line: 139, type: !1505, isLocal: false, isDefinition: false, scopeLine: 139, flags: DIFlagPrototyped, isOptimized: false)
!1505 = !DISubroutineType(types: !1506)
!1506 = !{!1477, !1495}
!1507 = !DISubprogram(name: "_M_local_data", linkageName: "_ZNKSt7__cxx1112basic_stringIcSt11char_traitsIcESaIcEE13_M_local_dataEv", scope: !1354, file: !1358, line: 149, type: !1508, isLocal: false, isDefinition: false, scopeLine: 149, flags: DIFlagPrototyped, isOptimized: false)
!1508 = !DISubroutineType(types: !1509)
!1509 = !{!1510, !1502}
!1510 = !DIDerivedType(tag: DW_TAG_typedef, name: "const_pointer", scope: !1354, file: !1358, line: 88, baseType: !1511)
!1511 = !DIDerivedType(tag: DW_TAG_typedef, name: "const_pointer", scope: !1363, file: !1362, line: 60, baseType: !1512)
!1512 = !DIDerivedType(tag: DW_TAG_typedef, name: "const_pointer", scope: !1367, file: !1368, line: 375, baseType: !121)
!1513 = !DISubprogram(name: "_M_capacity", linkageName: "_ZNSt7__cxx1112basic_stringIcSt11char_traitsIcESaIcEE11_M_capacityEm", scope: !1354, file: !1358, line: 159, type: !1497, isLocal: false, isDefinition: false, scopeLine: 159, flags: DIFlagPrototyped, isOptimized: false)
!1514 = !DISubprogram(name: "_M_set_length", linkageName: "_ZNSt7__cxx1112basic_stringIcSt11char_traitsIcESaIcEE13_M_set_lengthEm", scope: !1354, file: !1358, line: 163, type: !1497, isLocal: false, isDefinition: false, scopeLine: 163, flags: DIFlagPrototyped, isOptimized: false)
!1515 = !DISubprogram(name: "_M_is_local", linkageName: "_ZNKSt7__cxx1112basic_stringIcSt11char_traitsIcESaIcEE11_M_is_localEv", scope: !1354, file: !1358, line: 170, type: !1516, isLocal: false, isDefinition: false, scopeLine: 170, flags: DIFlagPrototyped, isOptimized: false)
!1516 = !DISubroutineType(types: !1517)
!1517 = !{!32, !1502}
!1518 = !DISubprogram(name: "_M_create", linkageName: "_ZNSt7__cxx1112basic_stringIcSt11char_traitsIcESaIcEE9_M_createERmm", scope: !1354, file: !1358, line: 175, type: !1519, isLocal: false, isDefinition: false, scopeLine: 175, flags: DIFlagPrototyped, isOptimized: false)
!1519 = !DISubroutineType(types: !1520)
!1520 = !{!1477, !1495, !1521, !1360}
!1521 = !DIDerivedType(tag: DW_TAG_reference_type, baseType: !1360, size: 64)
!1522 = !DISubprogram(name: "_M_dispose", linkageName: "_ZNSt7__cxx1112basic_stringIcSt11char_traitsIcESaIcEE10_M_disposeEv", scope: !1354, file: !1358, line: 178, type: !1523, isLocal: false, isDefinition: false, scopeLine: 178, flags: DIFlagPrototyped, isOptimized: false)
!1523 = !DISubroutineType(types: !1524)
!1524 = !{null, !1495}
!1525 = !DISubprogram(name: "_M_destroy", linkageName: "_ZNSt7__cxx1112basic_stringIcSt11char_traitsIcESaIcEE10_M_destroyEm", scope: !1354, file: !1358, line: 185, type: !1497, isLocal: false, isDefinition: false, scopeLine: 185, flags: DIFlagPrototyped, isOptimized: false)
!1526 = !DISubprogram(name: "_M_construct_aux_2", linkageName: "_ZNSt7__cxx1112basic_stringIcSt11char_traitsIcESaIcEE18_M_construct_aux_2Emc", scope: !1354, file: !1358, line: 207, type: !1527, isLocal: false, isDefinition: false, scopeLine: 207, flags: DIFlagPrototyped, isOptimized: false)
!1527 = !DISubroutineType(types: !1528)
!1528 = !{null, !1495, !1360, !53}
!1529 = !DISubprogram(name: "_M_construct", linkageName: "_ZNSt7__cxx1112basic_stringIcSt11char_traitsIcESaIcEE12_M_constructEmc", scope: !1354, file: !1358, line: 232, type: !1527, isLocal: false, isDefinition: false, scopeLine: 232, flags: DIFlagPrototyped, isOptimized: false)
!1530 = !DISubprogram(name: "_M_get_allocator", linkageName: "_ZNSt7__cxx1112basic_stringIcSt11char_traitsIcESaIcEE16_M_get_allocatorEv", scope: !1354, file: !1358, line: 235, type: !1531, isLocal: false, isDefinition: false, scopeLine: 235, flags: DIFlagPrototyped, isOptimized: false)
!1531 = !DISubroutineType(types: !1532)
!1532 = !{!1533, !1495}
!1533 = !DIDerivedType(tag: DW_TAG_reference_type, baseType: !1471, size: 64)
!1534 = !DISubprogram(name: "_M_get_allocator", linkageName: "_ZNKSt7__cxx1112basic_stringIcSt11char_traitsIcESaIcEE16_M_get_allocatorEv", scope: !1354, file: !1358, line: 239, type: !1535, isLocal: false, isDefinition: false, scopeLine: 239, flags: DIFlagPrototyped, isOptimized: false)
!1535 = !DISubroutineType(types: !1536)
!1536 = !{!1537, !1502}
!1537 = !DIDerivedType(tag: DW_TAG_reference_type, baseType: !1538, size: 64)
!1538 = !DIDerivedType(tag: DW_TAG_const_type, baseType: !1471)
!1539 = !DISubprogram(name: "_M_check", linkageName: "_ZNKSt7__cxx1112basic_stringIcSt11char_traitsIcESaIcEE8_M_checkEmPKc", scope: !1354, file: !1358, line: 259, type: !1540, isLocal: false, isDefinition: false, scopeLine: 259, flags: DIFlagPrototyped, isOptimized: false)
!1540 = !DISubroutineType(types: !1541)
!1541 = !{!1360, !1502, !1360, !121}
!1542 = !DISubprogram(name: "_M_check_length", linkageName: "_ZNKSt7__cxx1112basic_stringIcSt11char_traitsIcESaIcEE15_M_check_lengthEmmPKc", scope: !1354, file: !1358, line: 269, type: !1543, isLocal: false, isDefinition: false, scopeLine: 269, flags: DIFlagPrototyped, isOptimized: false)
!1543 = !DISubroutineType(types: !1544)
!1544 = !{null, !1502, !1360, !1360, !121}
!1545 = !DISubprogram(name: "_M_limit", linkageName: "_ZNKSt7__cxx1112basic_stringIcSt11char_traitsIcESaIcEE8_M_limitEmm", scope: !1354, file: !1358, line: 278, type: !1546, isLocal: false, isDefinition: false, scopeLine: 278, flags: DIFlagPrototyped, isOptimized: false)
!1546 = !DISubroutineType(types: !1547)
!1547 = !{!1360, !1502, !1360, !1360}
!1548 = !DISubprogram(name: "_M_disjunct", linkageName: "_ZNKSt7__cxx1112basic_stringIcSt11char_traitsIcESaIcEE11_M_disjunctEPKc", scope: !1354, file: !1358, line: 286, type: !1549, isLocal: false, isDefinition: false, scopeLine: 286, flags: DIFlagPrototyped, isOptimized: false)
!1549 = !DISubroutineType(types: !1550)
!1550 = !{!32, !1502, !121}
!1551 = !DISubprogram(name: "_S_copy", linkageName: "_ZNSt7__cxx1112basic_stringIcSt11char_traitsIcESaIcEE7_S_copyEPcPKcm", scope: !1354, file: !1358, line: 295, type: !1552, isLocal: false, isDefinition: false, scopeLine: 295, flags: DIFlagPrototyped | DIFlagStaticMember, isOptimized: false)
!1552 = !DISubroutineType(types: !1553)
!1553 = !{null, !415, !121, !1360}
!1554 = !DISubprogram(name: "_S_move", linkageName: "_ZNSt7__cxx1112basic_stringIcSt11char_traitsIcESaIcEE7_S_moveEPcPKcm", scope: !1354, file: !1358, line: 304, type: !1552, isLocal: false, isDefinition: false, scopeLine: 304, flags: DIFlagPrototyped | DIFlagStaticMember, isOptimized: false)
!1555 = !DISubprogram(name: "_S_assign", linkageName: "_ZNSt7__cxx1112basic_stringIcSt11char_traitsIcESaIcEE9_S_assignEPcmc", scope: !1354, file: !1358, line: 313, type: !1556, isLocal: false, isDefinition: false, scopeLine: 313, flags: DIFlagPrototyped | DIFlagStaticMember, isOptimized: false)
!1556 = !DISubroutineType(types: !1557)
!1557 = !{null, !415, !1360, !53}
!1558 = !DISubprogram(name: "_S_copy_chars", linkageName: "_ZNSt7__cxx1112basic_stringIcSt11char_traitsIcESaIcEE13_S_copy_charsEPcN9__gnu_cxx17__normal_iteratorIS5_S4_EES8_", scope: !1354, file: !1358, line: 332, type: !1559, isLocal: false, isDefinition: false, scopeLine: 332, flags: DIFlagPrototyped | DIFlagStaticMember, isOptimized: false)
!1559 = !DISubroutineType(types: !1560)
!1560 = !{null, !415, !1561, !1561}
!1561 = !DIDerivedType(tag: DW_TAG_typedef, name: "iterator", scope: !1354, file: !1358, line: 89, baseType: !1562)
!1562 = distinct !DICompositeType(tag: DW_TAG_class_type, name: "__normal_iterator<char *, std::__cxx11::basic_string<char> >", scope: !1364, file: !1563, line: 750, size: 64, flags: DIFlagTypePassByValue, elements: !1564, templateParams: !1616, identifier: "_ZTSN9__gnu_cxx17__normal_iteratorIPcNSt7__cxx1112basic_stringIcSt11char_traitsIcESaIcEEEEE")
!1563 = !DIFile(filename: "/opt/Xilinx/Vitis_HLS/2021.1/tps/lnx64/gcc-6.2.0/lib/gcc/x86_64-pc-linux-gnu/6.2.0/../../../../include/c++/6.2.0/bits/stl_iterator.h", directory: "/afs/hep.wisc.edu/home/mbileska/WOMBATv2HLS/duo/testMisc20/vivado_hls_duo")
!1564 = !{!1565, !1566, !1570, !1575, !1586, !1591, !1595, !1598, !1599, !1600, !1605, !1608, !1611, !1612, !1613}
!1565 = !DIDerivedType(tag: DW_TAG_member, name: "_M_current", scope: !1562, file: !1563, line: 753, baseType: !415, size: 64, flags: DIFlagProtected)
!1566 = !DISubprogram(name: "__normal_iterator", scope: !1562, file: !1563, line: 765, type: !1567, isLocal: false, isDefinition: false, scopeLine: 765, flags: DIFlagPublic | DIFlagPrototyped, isOptimized: false)
!1567 = !DISubroutineType(types: !1568)
!1568 = !{null, !1569}
!1569 = !DIDerivedType(tag: DW_TAG_pointer_type, baseType: !1562, size: 64, flags: DIFlagArtificial | DIFlagObjectPointer)
!1570 = !DISubprogram(name: "__normal_iterator", scope: !1562, file: !1563, line: 769, type: !1571, isLocal: false, isDefinition: false, scopeLine: 769, flags: DIFlagPublic | DIFlagExplicit | DIFlagPrototyped, isOptimized: false)
!1571 = !DISubroutineType(types: !1572)
!1572 = !{null, !1569, !1573}
!1573 = !DIDerivedType(tag: DW_TAG_reference_type, baseType: !1574, size: 64)
!1574 = !DIDerivedType(tag: DW_TAG_const_type, baseType: !415)
!1575 = !DISubprogram(name: "operator*", linkageName: "_ZNK9__gnu_cxx17__normal_iteratorIPcNSt7__cxx1112basic_stringIcSt11char_traitsIcESaIcEEEEdeEv", scope: !1562, file: !1563, line: 782, type: !1576, isLocal: false, isDefinition: false, scopeLine: 782, flags: DIFlagPublic | DIFlagPrototyped, isOptimized: false)
!1576 = !DISubroutineType(types: !1577)
!1577 = !{!1578, !1584}
!1578 = !DIDerivedType(tag: DW_TAG_typedef, name: "reference", scope: !1562, file: !1563, line: 762, baseType: !1579)
!1579 = !DIDerivedType(tag: DW_TAG_typedef, name: "reference", scope: !1581, file: !1580, line: 184, baseType: !1401)
!1580 = !DIFile(filename: "/opt/Xilinx/Vitis_HLS/2021.1/tps/lnx64/gcc-6.2.0/lib/gcc/x86_64-pc-linux-gnu/6.2.0/../../../../include/c++/6.2.0/bits/stl_iterator_base_types.h", directory: "/afs/hep.wisc.edu/home/mbileska/WOMBATv2HLS/duo/testMisc20/vivado_hls_duo")
!1581 = distinct !DICompositeType(tag: DW_TAG_structure_type, name: "iterator_traits<char *>", scope: !1001, file: !1580, line: 178, size: 8, flags: DIFlagTypePassByValue, elements: !4, templateParams: !1582, identifier: "_ZTSSt15iterator_traitsIPcE")
!1582 = !{!1583}
!1583 = !DITemplateTypeParameter(name: "_Iterator", type: !415)
!1584 = !DIDerivedType(tag: DW_TAG_pointer_type, baseType: !1585, size: 64, flags: DIFlagArtificial | DIFlagObjectPointer)
!1585 = !DIDerivedType(tag: DW_TAG_const_type, baseType: !1562)
!1586 = !DISubprogram(name: "operator->", linkageName: "_ZNK9__gnu_cxx17__normal_iteratorIPcNSt7__cxx1112basic_stringIcSt11char_traitsIcESaIcEEEEptEv", scope: !1562, file: !1563, line: 786, type: !1587, isLocal: false, isDefinition: false, scopeLine: 786, flags: DIFlagPublic | DIFlagPrototyped, isOptimized: false)
!1587 = !DISubroutineType(types: !1588)
!1588 = !{!1589, !1584}
!1589 = !DIDerivedType(tag: DW_TAG_typedef, name: "pointer", scope: !1562, file: !1563, line: 763, baseType: !1590)
!1590 = !DIDerivedType(tag: DW_TAG_typedef, name: "pointer", scope: !1581, file: !1580, line: 183, baseType: !415)
!1591 = !DISubprogram(name: "operator++", linkageName: "_ZN9__gnu_cxx17__normal_iteratorIPcNSt7__cxx1112basic_stringIcSt11char_traitsIcESaIcEEEEppEv", scope: !1562, file: !1563, line: 790, type: !1592, isLocal: false, isDefinition: false, scopeLine: 790, flags: DIFlagPublic | DIFlagPrototyped, isOptimized: false)
!1592 = !DISubroutineType(types: !1593)
!1593 = !{!1594, !1569}
!1594 = !DIDerivedType(tag: DW_TAG_reference_type, baseType: !1562, size: 64)
!1595 = !DISubprogram(name: "operator++", linkageName: "_ZN9__gnu_cxx17__normal_iteratorIPcNSt7__cxx1112basic_stringIcSt11char_traitsIcESaIcEEEEppEi", scope: !1562, file: !1563, line: 797, type: !1596, isLocal: false, isDefinition: false, scopeLine: 797, flags: DIFlagPublic | DIFlagPrototyped, isOptimized: false)
!1596 = !DISubroutineType(types: !1597)
!1597 = !{!1562, !1569, !30}
!1598 = !DISubprogram(name: "operator--", linkageName: "_ZN9__gnu_cxx17__normal_iteratorIPcNSt7__cxx1112basic_stringIcSt11char_traitsIcESaIcEEEEmmEv", scope: !1562, file: !1563, line: 802, type: !1592, isLocal: false, isDefinition: false, scopeLine: 802, flags: DIFlagPublic | DIFlagPrototyped, isOptimized: false)
!1599 = !DISubprogram(name: "operator--", linkageName: "_ZN9__gnu_cxx17__normal_iteratorIPcNSt7__cxx1112basic_stringIcSt11char_traitsIcESaIcEEEEmmEi", scope: !1562, file: !1563, line: 809, type: !1596, isLocal: false, isDefinition: false, scopeLine: 809, flags: DIFlagPublic | DIFlagPrototyped, isOptimized: false)
!1600 = !DISubprogram(name: "operator[]", linkageName: "_ZNK9__gnu_cxx17__normal_iteratorIPcNSt7__cxx1112basic_stringIcSt11char_traitsIcESaIcEEEEixEl", scope: !1562, file: !1563, line: 814, type: !1601, isLocal: false, isDefinition: false, scopeLine: 814, flags: DIFlagPublic | DIFlagPrototyped, isOptimized: false)
!1601 = !DISubroutineType(types: !1602)
!1602 = !{!1578, !1584, !1603}
!1603 = !DIDerivedType(tag: DW_TAG_typedef, name: "difference_type", scope: !1562, file: !1563, line: 761, baseType: !1604)
!1604 = !DIDerivedType(tag: DW_TAG_typedef, name: "difference_type", scope: !1581, file: !1580, line: 182, baseType: !1100)
!1605 = !DISubprogram(name: "operator+=", linkageName: "_ZN9__gnu_cxx17__normal_iteratorIPcNSt7__cxx1112basic_stringIcSt11char_traitsIcESaIcEEEEpLEl", scope: !1562, file: !1563, line: 818, type: !1606, isLocal: false, isDefinition: false, scopeLine: 818, flags: DIFlagPublic | DIFlagPrototyped, isOptimized: false)
!1606 = !DISubroutineType(types: !1607)
!1607 = !{!1594, !1569, !1603}
!1608 = !DISubprogram(name: "operator+", linkageName: "_ZNK9__gnu_cxx17__normal_iteratorIPcNSt7__cxx1112basic_stringIcSt11char_traitsIcESaIcEEEEplEl", scope: !1562, file: !1563, line: 822, type: !1609, isLocal: false, isDefinition: false, scopeLine: 822, flags: DIFlagPublic | DIFlagPrototyped, isOptimized: false)
!1609 = !DISubroutineType(types: !1610)
!1610 = !{!1562, !1584, !1603}
!1611 = !DISubprogram(name: "operator-=", linkageName: "_ZN9__gnu_cxx17__normal_iteratorIPcNSt7__cxx1112basic_stringIcSt11char_traitsIcESaIcEEEEmIEl", scope: !1562, file: !1563, line: 826, type: !1606, isLocal: false, isDefinition: false, scopeLine: 826, flags: DIFlagPublic | DIFlagPrototyped, isOptimized: false)
!1612 = !DISubprogram(name: "operator-", linkageName: "_ZNK9__gnu_cxx17__normal_iteratorIPcNSt7__cxx1112basic_stringIcSt11char_traitsIcESaIcEEEEmiEl", scope: !1562, file: !1563, line: 830, type: !1609, isLocal: false, isDefinition: false, scopeLine: 830, flags: DIFlagPublic | DIFlagPrototyped, isOptimized: false)
!1613 = !DISubprogram(name: "base", linkageName: "_ZNK9__gnu_cxx17__normal_iteratorIPcNSt7__cxx1112basic_stringIcSt11char_traitsIcESaIcEEEE4baseEv", scope: !1562, file: !1563, line: 834, type: !1614, isLocal: false, isDefinition: false, scopeLine: 834, flags: DIFlagPublic | DIFlagPrototyped, isOptimized: false)
!1614 = !DISubroutineType(types: !1615)
!1615 = !{!1573, !1584}
!1616 = !{!1583, !1617}
!1617 = !DITemplateTypeParameter(name: "_Container", type: !1354)
!1618 = !DISubprogram(name: "_S_copy_chars", linkageName: "_ZNSt7__cxx1112basic_stringIcSt11char_traitsIcESaIcEE13_S_copy_charsEPcN9__gnu_cxx17__normal_iteratorIPKcS4_EESA_", scope: !1354, file: !1358, line: 336, type: !1619, isLocal: false, isDefinition: false, scopeLine: 336, flags: DIFlagPrototyped | DIFlagStaticMember, isOptimized: false)
!1619 = !DISubroutineType(types: !1620)
!1620 = !{null, !415, !1621, !1621}
!1621 = !DIDerivedType(tag: DW_TAG_typedef, name: "const_iterator", scope: !1354, file: !1358, line: 91, baseType: !1622)
!1622 = distinct !DICompositeType(tag: DW_TAG_class_type, name: "__normal_iterator<const char *, std::__cxx11::basic_string<char> >", scope: !1364, file: !1563, line: 750, size: 64, flags: DIFlagTypePassByValue, elements: !1623, templateParams: !1673, identifier: "_ZTSN9__gnu_cxx17__normal_iteratorIPKcNSt7__cxx1112basic_stringIcSt11char_traitsIcESaIcEEEEE")
!1623 = !{!1624, !1625, !1629, !1633, !1643, !1648, !1652, !1655, !1656, !1657, !1662, !1665, !1668, !1669, !1670}
!1624 = !DIDerivedType(tag: DW_TAG_member, name: "_M_current", scope: !1622, file: !1563, line: 753, baseType: !121, size: 64, flags: DIFlagProtected)
!1625 = !DISubprogram(name: "__normal_iterator", scope: !1622, file: !1563, line: 765, type: !1626, isLocal: false, isDefinition: false, scopeLine: 765, flags: DIFlagPublic | DIFlagPrototyped, isOptimized: false)
!1626 = !DISubroutineType(types: !1627)
!1627 = !{null, !1628}
!1628 = !DIDerivedType(tag: DW_TAG_pointer_type, baseType: !1622, size: 64, flags: DIFlagArtificial | DIFlagObjectPointer)
!1629 = !DISubprogram(name: "__normal_iterator", scope: !1622, file: !1563, line: 769, type: !1630, isLocal: false, isDefinition: false, scopeLine: 769, flags: DIFlagPublic | DIFlagExplicit | DIFlagPrototyped, isOptimized: false)
!1630 = !DISubroutineType(types: !1631)
!1631 = !{null, !1628, !1632}
!1632 = !DIDerivedType(tag: DW_TAG_reference_type, baseType: !1328, size: 64)
!1633 = !DISubprogram(name: "operator*", linkageName: "_ZNK9__gnu_cxx17__normal_iteratorIPKcNSt7__cxx1112basic_stringIcSt11char_traitsIcESaIcEEEEdeEv", scope: !1622, file: !1563, line: 782, type: !1634, isLocal: false, isDefinition: false, scopeLine: 782, flags: DIFlagPublic | DIFlagPrototyped, isOptimized: false)
!1634 = !DISubroutineType(types: !1635)
!1635 = !{!1636, !1641}
!1636 = !DIDerivedType(tag: DW_TAG_typedef, name: "reference", scope: !1622, file: !1563, line: 762, baseType: !1637)
!1637 = !DIDerivedType(tag: DW_TAG_typedef, name: "reference", scope: !1638, file: !1580, line: 195, baseType: !1407)
!1638 = distinct !DICompositeType(tag: DW_TAG_structure_type, name: "iterator_traits<const char *>", scope: !1001, file: !1580, line: 189, size: 8, flags: DIFlagTypePassByValue, elements: !4, templateParams: !1639, identifier: "_ZTSSt15iterator_traitsIPKcE")
!1639 = !{!1640}
!1640 = !DITemplateTypeParameter(name: "_Iterator", type: !121)
!1641 = !DIDerivedType(tag: DW_TAG_pointer_type, baseType: !1642, size: 64, flags: DIFlagArtificial | DIFlagObjectPointer)
!1642 = !DIDerivedType(tag: DW_TAG_const_type, baseType: !1622)
!1643 = !DISubprogram(name: "operator->", linkageName: "_ZNK9__gnu_cxx17__normal_iteratorIPKcNSt7__cxx1112basic_stringIcSt11char_traitsIcESaIcEEEEptEv", scope: !1622, file: !1563, line: 786, type: !1644, isLocal: false, isDefinition: false, scopeLine: 786, flags: DIFlagPublic | DIFlagPrototyped, isOptimized: false)
!1644 = !DISubroutineType(types: !1645)
!1645 = !{!1646, !1641}
!1646 = !DIDerivedType(tag: DW_TAG_typedef, name: "pointer", scope: !1622, file: !1563, line: 763, baseType: !1647)
!1647 = !DIDerivedType(tag: DW_TAG_typedef, name: "pointer", scope: !1638, file: !1580, line: 194, baseType: !121)
!1648 = !DISubprogram(name: "operator++", linkageName: "_ZN9__gnu_cxx17__normal_iteratorIPKcNSt7__cxx1112basic_stringIcSt11char_traitsIcESaIcEEEEppEv", scope: !1622, file: !1563, line: 790, type: !1649, isLocal: false, isDefinition: false, scopeLine: 790, flags: DIFlagPublic | DIFlagPrototyped, isOptimized: false)
!1649 = !DISubroutineType(types: !1650)
!1650 = !{!1651, !1628}
!1651 = !DIDerivedType(tag: DW_TAG_reference_type, baseType: !1622, size: 64)
!1652 = !DISubprogram(name: "operator++", linkageName: "_ZN9__gnu_cxx17__normal_iteratorIPKcNSt7__cxx1112basic_stringIcSt11char_traitsIcESaIcEEEEppEi", scope: !1622, file: !1563, line: 797, type: !1653, isLocal: false, isDefinition: false, scopeLine: 797, flags: DIFlagPublic | DIFlagPrototyped, isOptimized: false)
!1653 = !DISubroutineType(types: !1654)
!1654 = !{!1622, !1628, !30}
!1655 = !DISubprogram(name: "operator--", linkageName: "_ZN9__gnu_cxx17__normal_iteratorIPKcNSt7__cxx1112basic_stringIcSt11char_traitsIcESaIcEEEEmmEv", scope: !1622, file: !1563, line: 802, type: !1649, isLocal: false, isDefinition: false, scopeLine: 802, flags: DIFlagPublic | DIFlagPrototyped, isOptimized: false)
!1656 = !DISubprogram(name: "operator--", linkageName: "_ZN9__gnu_cxx17__normal_iteratorIPKcNSt7__cxx1112basic_stringIcSt11char_traitsIcESaIcEEEEmmEi", scope: !1622, file: !1563, line: 809, type: !1653, isLocal: false, isDefinition: false, scopeLine: 809, flags: DIFlagPublic | DIFlagPrototyped, isOptimized: false)
!1657 = !DISubprogram(name: "operator[]", linkageName: "_ZNK9__gnu_cxx17__normal_iteratorIPKcNSt7__cxx1112basic_stringIcSt11char_traitsIcESaIcEEEEixEl", scope: !1622, file: !1563, line: 814, type: !1658, isLocal: false, isDefinition: false, scopeLine: 814, flags: DIFlagPublic | DIFlagPrototyped, isOptimized: false)
!1658 = !DISubroutineType(types: !1659)
!1659 = !{!1636, !1641, !1660}
!1660 = !DIDerivedType(tag: DW_TAG_typedef, name: "difference_type", scope: !1622, file: !1563, line: 761, baseType: !1661)
!1661 = !DIDerivedType(tag: DW_TAG_typedef, name: "difference_type", scope: !1638, file: !1580, line: 193, baseType: !1100)
!1662 = !DISubprogram(name: "operator+=", linkageName: "_ZN9__gnu_cxx17__normal_iteratorIPKcNSt7__cxx1112basic_stringIcSt11char_traitsIcESaIcEEEEpLEl", scope: !1622, file: !1563, line: 818, type: !1663, isLocal: false, isDefinition: false, scopeLine: 818, flags: DIFlagPublic | DIFlagPrototyped, isOptimized: false)
!1663 = !DISubroutineType(types: !1664)
!1664 = !{!1651, !1628, !1660}
!1665 = !DISubprogram(name: "operator+", linkageName: "_ZNK9__gnu_cxx17__normal_iteratorIPKcNSt7__cxx1112basic_stringIcSt11char_traitsIcESaIcEEEEplEl", scope: !1622, file: !1563, line: 822, type: !1666, isLocal: false, isDefinition: false, scopeLine: 822, flags: DIFlagPublic | DIFlagPrototyped, isOptimized: false)
!1666 = !DISubroutineType(types: !1667)
!1667 = !{!1622, !1641, !1660}
!1668 = !DISubprogram(name: "operator-=", linkageName: "_ZN9__gnu_cxx17__normal_iteratorIPKcNSt7__cxx1112basic_stringIcSt11char_traitsIcESaIcEEEEmIEl", scope: !1622, file: !1563, line: 826, type: !1663, isLocal: false, isDefinition: false, scopeLine: 826, flags: DIFlagPublic | DIFlagPrototyped, isOptimized: false)
!1669 = !DISubprogram(name: "operator-", linkageName: "_ZNK9__gnu_cxx17__normal_iteratorIPKcNSt7__cxx1112basic_stringIcSt11char_traitsIcESaIcEEEEmiEl", scope: !1622, file: !1563, line: 830, type: !1666, isLocal: false, isDefinition: false, scopeLine: 830, flags: DIFlagPublic | DIFlagPrototyped, isOptimized: false)
!1670 = !DISubprogram(name: "base", linkageName: "_ZNK9__gnu_cxx17__normal_iteratorIPKcNSt7__cxx1112basic_stringIcSt11char_traitsIcESaIcEEEE4baseEv", scope: !1622, file: !1563, line: 834, type: !1671, isLocal: false, isDefinition: false, scopeLine: 834, flags: DIFlagPublic | DIFlagPrototyped, isOptimized: false)
!1671 = !DISubroutineType(types: !1672)
!1672 = !{!1632, !1641}
!1673 = !{!1640, !1617}
!1674 = !DISubprogram(name: "_S_copy_chars", linkageName: "_ZNSt7__cxx1112basic_stringIcSt11char_traitsIcESaIcEE13_S_copy_charsEPcS5_S5_", scope: !1354, file: !1358, line: 341, type: !1675, isLocal: false, isDefinition: false, scopeLine: 341, flags: DIFlagPrototyped | DIFlagStaticMember, isOptimized: false)
!1675 = !DISubroutineType(types: !1676)
!1676 = !{null, !415, !415, !415}
!1677 = !DISubprogram(name: "_S_copy_chars", linkageName: "_ZNSt7__cxx1112basic_stringIcSt11char_traitsIcESaIcEE13_S_copy_charsEPcPKcS7_", scope: !1354, file: !1358, line: 345, type: !1678, isLocal: false, isDefinition: false, scopeLine: 345, flags: DIFlagPrototyped | DIFlagStaticMember, isOptimized: false)
!1678 = !DISubroutineType(types: !1679)
!1679 = !{null, !415, !121, !121}
!1680 = !DISubprogram(name: "_S_compare", linkageName: "_ZNSt7__cxx1112basic_stringIcSt11char_traitsIcESaIcEE10_S_compareEmm", scope: !1354, file: !1358, line: 350, type: !1681, isLocal: false, isDefinition: false, scopeLine: 350, flags: DIFlagPrototyped | DIFlagStaticMember, isOptimized: false)
!1681 = !DISubroutineType(types: !1682)
!1682 = !{!30, !1360, !1360}
!1683 = !DISubprogram(name: "_M_assign", linkageName: "_ZNSt7__cxx1112basic_stringIcSt11char_traitsIcESaIcEE9_M_assignERKS4_", scope: !1354, file: !1358, line: 363, type: !1684, isLocal: false, isDefinition: false, scopeLine: 363, flags: DIFlagPrototyped, isOptimized: false)
!1684 = !DISubroutineType(types: !1685)
!1685 = !{null, !1495, !1686}
!1686 = !DIDerivedType(tag: DW_TAG_reference_type, baseType: !1503, size: 64)
!1687 = !DISubprogram(name: "_M_mutate", linkageName: "_ZNSt7__cxx1112basic_stringIcSt11char_traitsIcESaIcEE9_M_mutateEmmPKcm", scope: !1354, file: !1358, line: 366, type: !1688, isLocal: false, isDefinition: false, scopeLine: 366, flags: DIFlagPrototyped, isOptimized: false)
!1688 = !DISubroutineType(types: !1689)
!1689 = !{null, !1495, !1360, !1360, !121, !1360}
!1690 = !DISubprogram(name: "_M_erase", linkageName: "_ZNSt7__cxx1112basic_stringIcSt11char_traitsIcESaIcEE8_M_eraseEmm", scope: !1354, file: !1358, line: 370, type: !1691, isLocal: false, isDefinition: false, scopeLine: 370, flags: DIFlagPrototyped, isOptimized: false)
!1691 = !DISubroutineType(types: !1692)
!1692 = !{null, !1495, !1360, !1360}
!1693 = !DISubprogram(name: "basic_string", scope: !1354, file: !1358, line: 380, type: !1523, isLocal: false, isDefinition: false, scopeLine: 380, flags: DIFlagPublic | DIFlagPrototyped, isOptimized: false)
!1694 = !DISubprogram(name: "basic_string", scope: !1354, file: !1358, line: 389, type: !1695, isLocal: false, isDefinition: false, scopeLine: 389, flags: DIFlagPublic | DIFlagExplicit | DIFlagPrototyped, isOptimized: false)
!1695 = !DISubroutineType(types: !1696)
!1696 = !{null, !1495, !1429}
!1697 = !DISubprogram(name: "basic_string", scope: !1354, file: !1358, line: 397, type: !1684, isLocal: false, isDefinition: false, scopeLine: 397, flags: DIFlagPublic | DIFlagPrototyped, isOptimized: false)
!1698 = !DISubprogram(name: "basic_string", scope: !1354, file: !1358, line: 410, type: !1699, isLocal: false, isDefinition: false, scopeLine: 410, flags: DIFlagPublic | DIFlagPrototyped, isOptimized: false)
!1699 = !DISubroutineType(types: !1700)
!1700 = !{null, !1495, !1686, !1360, !1360}
!1701 = !DISubprogram(name: "basic_string", scope: !1354, file: !1358, line: 426, type: !1702, isLocal: false, isDefinition: false, scopeLine: 426, flags: DIFlagPublic | DIFlagPrototyped, isOptimized: false)
!1702 = !DISubroutineType(types: !1703)
!1703 = !{null, !1495, !1686, !1360, !1360, !1429}
!1704 = !DISubprogram(name: "basic_string", scope: !1354, file: !1358, line: 444, type: !1705, isLocal: false, isDefinition: false, scopeLine: 444, flags: DIFlagPublic | DIFlagPrototyped, isOptimized: false)
!1705 = !DISubroutineType(types: !1706)
!1706 = !{null, !1495, !121, !1360, !1429}
!1707 = !DISubprogram(name: "basic_string", scope: !1354, file: !1358, line: 454, type: !1708, isLocal: false, isDefinition: false, scopeLine: 454, flags: DIFlagPublic | DIFlagPrototyped, isOptimized: false)
!1708 = !DISubroutineType(types: !1709)
!1709 = !{null, !1495, !121, !1429}
!1710 = !DISubprogram(name: "basic_string", scope: !1354, file: !1358, line: 464, type: !1711, isLocal: false, isDefinition: false, scopeLine: 464, flags: DIFlagPublic | DIFlagPrototyped, isOptimized: false)
!1711 = !DISubroutineType(types: !1712)
!1712 = !{null, !1495, !1360, !53, !1429}
!1713 = !DISubprogram(name: "basic_string", scope: !1354, file: !1358, line: 476, type: !1714, isLocal: false, isDefinition: false, scopeLine: 476, flags: DIFlagPublic | DIFlagPrototyped, isOptimized: false)
!1714 = !DISubroutineType(types: !1715)
!1715 = !{null, !1495, !1716}
!1716 = !DIDerivedType(tag: DW_TAG_rvalue_reference_type, baseType: !1354, size: 64)
!1717 = !DISubprogram(name: "basic_string", scope: !1354, file: !1358, line: 503, type: !1718, isLocal: false, isDefinition: false, scopeLine: 503, flags: DIFlagPublic | DIFlagPrototyped, isOptimized: false)
!1718 = !DISubroutineType(types: !1719)
!1719 = !{null, !1495, !1720, !1429}
!1720 = distinct !DICompositeType(tag: DW_TAG_class_type, name: "initializer_list<char>", scope: !1001, file: !1721, line: 47, size: 128, align: 64, flags: DIFlagFwdDecl, identifier: "_ZTSSt16initializer_listIcE")
!1721 = !DIFile(filename: "/opt/Xilinx/Vitis_HLS/2021.1/tps/lnx64/gcc-6.2.0/lib/gcc/x86_64-pc-linux-gnu/6.2.0/../../../../include/c++/6.2.0/initializer_list", directory: "/afs/hep.wisc.edu/home/mbileska/WOMBATv2HLS/duo/testMisc20/vivado_hls_duo")
!1722 = !DISubprogram(name: "basic_string", scope: !1354, file: !1358, line: 507, type: !1723, isLocal: false, isDefinition: false, scopeLine: 507, flags: DIFlagPublic | DIFlagPrototyped, isOptimized: false)
!1723 = !DISubroutineType(types: !1724)
!1724 = !{null, !1495, !1686, !1429}
!1725 = !DISubprogram(name: "basic_string", scope: !1354, file: !1358, line: 511, type: !1726, isLocal: false, isDefinition: false, scopeLine: 511, flags: DIFlagPublic | DIFlagPrototyped, isOptimized: false)
!1726 = !DISubroutineType(types: !1727)
!1727 = !{null, !1495, !1716, !1429}
!1728 = !DISubprogram(name: "~basic_string", scope: !1354, file: !1358, line: 557, type: !1523, isLocal: false, isDefinition: false, scopeLine: 557, flags: DIFlagPublic | DIFlagPrototyped, isOptimized: false)
!1729 = !DISubprogram(name: "operator=", linkageName: "_ZNSt7__cxx1112basic_stringIcSt11char_traitsIcESaIcEEaSERKS4_", scope: !1354, file: !1358, line: 565, type: !1730, isLocal: false, isDefinition: false, scopeLine: 565, flags: DIFlagPublic | DIFlagPrototyped, isOptimized: false)
!1730 = !DISubroutineType(types: !1731)
!1731 = !{!1732, !1495, !1686}
!1732 = !DIDerivedType(tag: DW_TAG_reference_type, baseType: !1354, size: 64)
!1733 = !DISubprogram(name: "operator=", linkageName: "_ZNSt7__cxx1112basic_stringIcSt11char_traitsIcESaIcEEaSEPKc", scope: !1354, file: !1358, line: 589, type: !1734, isLocal: false, isDefinition: false, scopeLine: 589, flags: DIFlagPublic | DIFlagPrototyped, isOptimized: false)
!1734 = !DISubroutineType(types: !1735)
!1735 = !{!1732, !1495, !121}
!1736 = !DISubprogram(name: "operator=", linkageName: "_ZNSt7__cxx1112basic_stringIcSt11char_traitsIcESaIcEEaSEc", scope: !1354, file: !1358, line: 600, type: !1737, isLocal: false, isDefinition: false, scopeLine: 600, flags: DIFlagPublic | DIFlagPrototyped, isOptimized: false)
!1737 = !DISubroutineType(types: !1738)
!1738 = !{!1732, !1495, !53}
!1739 = !DISubprogram(name: "operator=", linkageName: "_ZNSt7__cxx1112basic_stringIcSt11char_traitsIcESaIcEEaSEOS4_", scope: !1354, file: !1358, line: 618, type: !1740, isLocal: false, isDefinition: false, scopeLine: 618, flags: DIFlagPublic | DIFlagPrototyped, isOptimized: false)
!1740 = !DISubroutineType(types: !1741)
!1741 = !{!1732, !1495, !1716}
!1742 = !DISubprogram(name: "operator=", linkageName: "_ZNSt7__cxx1112basic_stringIcSt11char_traitsIcESaIcEEaSESt16initializer_listIcE", scope: !1354, file: !1358, line: 672, type: !1743, isLocal: false, isDefinition: false, scopeLine: 672, flags: DIFlagPublic | DIFlagPrototyped, isOptimized: false)
!1743 = !DISubroutineType(types: !1744)
!1744 = !{!1732, !1495, !1720}
!1745 = !DISubprogram(name: "begin", linkageName: "_ZNSt7__cxx1112basic_stringIcSt11char_traitsIcESaIcEE5beginEv", scope: !1354, file: !1358, line: 685, type: !1746, isLocal: false, isDefinition: false, scopeLine: 685, flags: DIFlagPublic | DIFlagPrototyped, isOptimized: false)
!1746 = !DISubroutineType(types: !1747)
!1747 = !{!1561, !1495}
